---
triple:          'arm64-apple-darwin'
binary-path:     candlestick
relocations:
  - { offsetInCU: 0x5AB8, offset: 0x5AB8, size: 0x8, addend: 0x0, symName: __ZNSt3__1neB8ue170006IP11CandlestickEEbRKNS_11__wrap_iterIT_EES7_, symObjAddr: 0x324, symBinAddr: 0x100003408, symSize: 0x34 }
  - { offsetInCU: 0x5AFB, offset: 0x5AFB, size: 0x8, addend: 0x0, symName: __ZNSt3__1eqB8ue170006IP11CandlestickEEbRKNS_11__wrap_iterIT_EES7_, symObjAddr: 0x440, symBinAddr: 0x100003524, symSize: 0x48 }
  - { offsetInCU: 0x5B3E, offset: 0x5B3E, size: 0x8, addend: 0x0, symName: __ZNSt3__112__to_addressB8ue170006INS_12basic_stringIcNS_11char_traitsIcEENS_9allocatorIcEEEEEEPT_S8_, symObjAddr: 0x8C0, symBinAddr: 0x1000039A4, symSize: 0x14 }
  - { offsetInCU: 0x5B73, offset: 0x5B73, size: 0x8, addend: 0x0, symName: __ZNSt3__119__libcpp_deallocateB8ue170006EPvmm, symObjAddr: 0x9B0, symBinAddr: 0x100003A94, symSize: 0x30 }
  - { offsetInCU: 0x5BBB, offset: 0x5BBB, size: 0x8, addend: 0x0, symName: __ZNSt3__127__do_deallocate_handle_sizeB8ue170006IJEEEvPvmDpT_, symObjAddr: 0x9E0, symBinAddr: 0x100003AC4, symSize: 0x28 }
  - { offsetInCU: 0x5BF9, offset: 0x5BF9, size: 0x8, addend: 0x0, symName: __ZNSt3__124__libcpp_operator_deleteB8ue170006IJPvEEEvDpT_, symObjAddr: 0xA08, symBinAddr: 0x100003AEC, symSize: 0x24 }
  - { offsetInCU: 0x5C2E, offset: 0x5C2E, size: 0x8, addend: 0x0, symName: __ZNSt3__118__constexpr_strlenB8ue170006EPKc, symObjAddr: 0xC48, symBinAddr: 0x100003D2C, symSize: 0x24 }
  - { offsetInCU: 0x5C5A, offset: 0x5C5A, size: 0x8, addend: 0x0, symName: __ZNSt3__112__to_addressB8ue170006INS_6vectorINS_12basic_stringIcNS_11char_traitsIcEENS_9allocatorIcEEEENS5_IS7_EEEEEEPT_SB_, symObjAddr: 0xFE4, symBinAddr: 0x1000040C8, symSize: 0x14 }
  - { offsetInCU: 0x5C8F, offset: 0x5C8F, size: 0x8, addend: 0x0, symName: __ZNSt3__112__to_addressB8ue170006I11CandlestickEEPT_S3_, symObjAddr: 0x14E4, symBinAddr: 0x1000045C8, symSize: 0x14 }
  - { offsetInCU: 0x86C3, offset: 0x86C3, size: 0x8, addend: 0x0, symName: _main, symObjAddr: 0x0, symBinAddr: 0x1000030E4, symSize: 0x290 }
  - { offsetInCU: 0x878A, offset: 0x878A, size: 0x8, addend: 0x0, symName: __ZNSt3__112basic_stringIcNS_11char_traitsIcEENS_9allocatorIcEEEC1B8ue170006ILi0EEEPKc, symObjAddr: 0x290, symBinAddr: 0x100003374, symSize: 0x34 }
  - { offsetInCU: 0x87C7, offset: 0x87C7, size: 0x8, addend: 0x0, symName: __ZNSt3__16vectorI11CandlestickNS_9allocatorIS1_EEE5beginB8ue170006Ev, symObjAddr: 0x2C4, symBinAddr: 0x1000033A8, symSize: 0x30 }
  - { offsetInCU: 0x87ED, offset: 0x87ED, size: 0x8, addend: 0x0, symName: __ZNSt3__16vectorI11CandlestickNS_9allocatorIS1_EEE3endB8ue170006Ev, symObjAddr: 0x2F4, symBinAddr: 0x1000033D8, symSize: 0x30 }
  - { offsetInCU: 0x8813, offset: 0x8813, size: 0x8, addend: 0x0, symName: __ZNKSt3__111__wrap_iterIP11CandlestickEdeB8ue170006Ev, symObjAddr: 0x358, symBinAddr: 0x10000343C, symSize: 0x18 }
  - { offsetInCU: 0x8837, offset: 0x8837, size: 0x8, addend: 0x0, symName: __ZNSt3__111__wrap_iterIP11CandlestickEppB8ue170006Ev, symObjAddr: 0x370, symBinAddr: 0x100003454, symSize: 0x20 }
  - { offsetInCU: 0x885B, offset: 0x885B, size: 0x8, addend: 0x0, symName: __ZNSt3__16vectorI11CandlestickNS_9allocatorIS1_EEED1B8ue170006Ev, symObjAddr: 0x390, symBinAddr: 0x100003474, symSize: 0x2C }
  - { offsetInCU: 0x8883, offset: 0x8883, size: 0x8, addend: 0x0, symName: __ZNSt3__16vectorINS0_INS_12basic_stringIcNS_11char_traitsIcEENS_9allocatorIcEEEENS4_IS6_EEEENS4_IS8_EEED1B8ue170006Ev, symObjAddr: 0x3BC, symBinAddr: 0x1000034A0, symSize: 0x2C }
  - { offsetInCU: 0x8925, offset: 0x8925, size: 0x8, addend: 0x0, symName: __ZN9CSVReaderD1Ev, symObjAddr: 0x3E8, symBinAddr: 0x1000034CC, symSize: 0x2C }
  - { offsetInCU: 0x8AFD, offset: 0x8AFD, size: 0x8, addend: 0x0, symName: __ZN4MenuD1Ev, symObjAddr: 0x414, symBinAddr: 0x1000034F8, symSize: 0x2C }
  - { offsetInCU: 0x8B27, offset: 0x8B27, size: 0x8, addend: 0x0, symName: __ZNKSt3__111__wrap_iterIP11CandlestickE4baseB8ue170006Ev, symObjAddr: 0x488, symBinAddr: 0x10000356C, symSize: 0x18 }
  - { offsetInCU: 0x8B4B, offset: 0x8B4B, size: 0x8, addend: 0x0, symName: __ZN9CSVReaderD2Ev, symObjAddr: 0x4A0, symBinAddr: 0x100003584, symSize: 0x2C }
  - { offsetInCU: 0x8B75, offset: 0x8B75, size: 0x8, addend: 0x0, symName: __ZN4MenuD2Ev, symObjAddr: 0x4CC, symBinAddr: 0x1000035B0, symSize: 0x44 }
  - { offsetInCU: 0x8B9F, offset: 0x8B9F, size: 0x8, addend: 0x0, symName: __ZNSt3__16vectorINS_12basic_stringIcNS_11char_traitsIcEENS_9allocatorIcEEEENS4_IS6_EEED1B8ue170006Ev, symObjAddr: 0x510, symBinAddr: 0x1000035F4, symSize: 0x2C }
  - { offsetInCU: 0x8BC7, offset: 0x8BC7, size: 0x8, addend: 0x0, symName: __ZNSt3__16vectorINS_12basic_stringIcNS_11char_traitsIcEENS_9allocatorIcEEEENS4_IS6_EEED2B8ue170006Ev, symObjAddr: 0x53C, symBinAddr: 0x100003620, symSize: 0x44 }
  - { offsetInCU: 0x8BEF, offset: 0x8BEF, size: 0x8, addend: 0x0, symName: __ZNSt3__16vectorINS_12basic_stringIcNS_11char_traitsIcEENS_9allocatorIcEEEENS4_IS6_EEE16__destroy_vectorC1B8ue170006ERS8_, symObjAddr: 0x580, symBinAddr: 0x100003664, symSize: 0x34 }
  - { offsetInCU: 0x8C26, offset: 0x8C26, size: 0x8, addend: 0x0, symName: __ZNSt3__16vectorINS_12basic_stringIcNS_11char_traitsIcEENS_9allocatorIcEEEENS4_IS6_EEE16__destroy_vectorclB8ue170006Ev, symObjAddr: 0x5C0, symBinAddr: 0x1000036A4, symSize: 0x90 }
  - { offsetInCU: 0x8C4A, offset: 0x8C4A, size: 0x8, addend: 0x0, symName: __ZNSt3__16vectorINS_12basic_stringIcNS_11char_traitsIcEENS_9allocatorIcEEEENS4_IS6_EEE16__destroy_vectorC2B8ue170006ERS8_, symObjAddr: 0x650, symBinAddr: 0x100003734, symSize: 0x20 }
  - { offsetInCU: 0x8C81, offset: 0x8C81, size: 0x8, addend: 0x0, symName: __ZNSt3__16vectorINS_12basic_stringIcNS_11char_traitsIcEENS_9allocatorIcEEEENS4_IS6_EEE7__clearB8ue170006Ev, symObjAddr: 0x670, symBinAddr: 0x100003754, symSize: 0x28 }
  - { offsetInCU: 0x8CA5, offset: 0x8CA5, size: 0x8, addend: 0x0, symName: __ZNKSt3__16vectorINS_12basic_stringIcNS_11char_traitsIcEENS_9allocatorIcEEEENS4_IS6_EEE17__annotate_deleteB8ue170006Ev, symObjAddr: 0x698, symBinAddr: 0x10000377C, symSize: 0xD4 }
  - { offsetInCU: 0x8CC9, offset: 0x8CC9, size: 0x8, addend: 0x0, symName: __ZNSt3__116allocator_traitsINS_9allocatorINS_12basic_stringIcNS_11char_traitsIcEENS1_IcEEEEEEE10deallocateB8ue170006ERS7_PS6_m, symObjAddr: 0x76C, symBinAddr: 0x100003850, symSize: 0x34 }
  - { offsetInCU: 0x8D0A, offset: 0x8D0A, size: 0x8, addend: 0x0, symName: __ZNSt3__16vectorINS_12basic_stringIcNS_11char_traitsIcEENS_9allocatorIcEEEENS4_IS6_EEE7__allocB8ue170006Ev, symObjAddr: 0x7A0, symBinAddr: 0x100003884, symSize: 0x28 }
  - { offsetInCU: 0x8D2E, offset: 0x8D2E, size: 0x8, addend: 0x0, symName: __ZNKSt3__16vectorINS_12basic_stringIcNS_11char_traitsIcEENS_9allocatorIcEEEENS4_IS6_EEE8capacityB8ue170006Ev, symObjAddr: 0x7C8, symBinAddr: 0x1000038AC, symSize: 0x40 }
  - { offsetInCU: 0x8D52, offset: 0x8D52, size: 0x8, addend: 0x0, symName: __ZNSt3__16vectorINS_12basic_stringIcNS_11char_traitsIcEENS_9allocatorIcEEEENS4_IS6_EEE22__base_destruct_at_endB8ue170006EPS6_, symObjAddr: 0x808, symBinAddr: 0x1000038EC, symSize: 0x8C }
  - { offsetInCU: 0x8D94, offset: 0x8D94, size: 0x8, addend: 0x0, symName: __ZNSt3__116allocator_traitsINS_9allocatorINS_12basic_stringIcNS_11char_traitsIcEENS1_IcEEEEEEE7destroyB8ue170006IS6_vEEvRS7_PT_, symObjAddr: 0x894, symBinAddr: 0x100003978, symSize: 0x2C }
  - { offsetInCU: 0x8DD0, offset: 0x8DD0, size: 0x8, addend: 0x0, symName: __ZNSt3__19allocatorINS_12basic_stringIcNS_11char_traitsIcEENS0_IcEEEEE7destroyB8ue170006EPS5_, symObjAddr: 0x8D4, symBinAddr: 0x1000039B8, symSize: 0x28 }
  - { offsetInCU: 0x8E02, offset: 0x8E02, size: 0x8, addend: 0x0, symName: __ZNKSt3__16vectorINS_12basic_stringIcNS_11char_traitsIcEENS_9allocatorIcEEEENS4_IS6_EEE31__annotate_contiguous_containerB8ue170006EPKvSA_SA_SA_, symObjAddr: 0x8FC, symBinAddr: 0x1000039E0, symSize: 0x20 }
  - { offsetInCU: 0x8E52, offset: 0x8E52, size: 0x8, addend: 0x0, symName: __ZNKSt3__16vectorINS_12basic_stringIcNS_11char_traitsIcEENS_9allocatorIcEEEENS4_IS6_EEE4dataB8ue170006Ev, symObjAddr: 0x91C, symBinAddr: 0x100003A00, symSize: 0x28 }
  - { offsetInCU: 0x8E76, offset: 0x8E76, size: 0x8, addend: 0x0, symName: __ZNKSt3__16vectorINS_12basic_stringIcNS_11char_traitsIcEENS_9allocatorIcEEEENS4_IS6_EEE4sizeB8ue170006Ev, symObjAddr: 0x944, symBinAddr: 0x100003A28, symSize: 0x28 }
  - { offsetInCU: 0x8E9A, offset: 0x8E9A, size: 0x8, addend: 0x0, symName: __ZNSt3__19allocatorINS_12basic_stringIcNS_11char_traitsIcEENS0_IcEEEEE10deallocateB8ue170006EPS5_m, symObjAddr: 0x96C, symBinAddr: 0x100003A50, symSize: 0x44 }
  - { offsetInCU: 0x8EDA, offset: 0x8EDA, size: 0x8, addend: 0x0, symName: __ZNSt3__117__compressed_pairIPNS_12basic_stringIcNS_11char_traitsIcEENS_9allocatorIcEEEENS4_IS6_EEE6secondB8ue170006Ev, symObjAddr: 0xA2C, symBinAddr: 0x100003B10, symSize: 0x24 }
  - { offsetInCU: 0x8EFE, offset: 0x8EFE, size: 0x8, addend: 0x0, symName: __ZNSt3__122__compressed_pair_elemINS_9allocatorINS_12basic_stringIcNS_11char_traitsIcEENS1_IcEEEEEELi1ELb1EE5__getB8ue170006Ev, symObjAddr: 0xA50, symBinAddr: 0x100003B34, symSize: 0x14 }
  - { offsetInCU: 0x8F22, offset: 0x8F22, size: 0x8, addend: 0x0, symName: __ZNKSt3__16vectorINS_12basic_stringIcNS_11char_traitsIcEENS_9allocatorIcEEEENS4_IS6_EEE9__end_capB8ue170006Ev, symObjAddr: 0xA64, symBinAddr: 0x100003B48, symSize: 0x28 }
  - { offsetInCU: 0x8F46, offset: 0x8F46, size: 0x8, addend: 0x0, symName: __ZNKSt3__117__compressed_pairIPNS_12basic_stringIcNS_11char_traitsIcEENS_9allocatorIcEEEENS4_IS6_EEE5firstB8ue170006Ev, symObjAddr: 0xA8C, symBinAddr: 0x100003B70, symSize: 0x24 }
  - { offsetInCU: 0x8F6A, offset: 0x8F6A, size: 0x8, addend: 0x0, symName: __ZNKSt3__122__compressed_pair_elemIPNS_12basic_stringIcNS_11char_traitsIcEENS_9allocatorIcEEEELi0ELb0EE5__getB8ue170006Ev, symObjAddr: 0xAB0, symBinAddr: 0x100003B94, symSize: 0x14 }
  - { offsetInCU: 0x8F8E, offset: 0x8F8E, size: 0x8, addend: 0x0, symName: __ZNSt3__112basic_stringIcNS_11char_traitsIcEENS_9allocatorIcEEEC2B8ue170006ILi0EEEPKc, symObjAddr: 0xAC4, symBinAddr: 0x100003BA8, symSize: 0x58 }
  - { offsetInCU: 0x8FD0, offset: 0x8FD0, size: 0x8, addend: 0x0, symName: __ZNSt3__117__compressed_pairINS_12basic_stringIcNS_11char_traitsIcEENS_9allocatorIcEEE5__repES5_EC1B8ue170006INS_18__default_init_tagESA_EEOT_OT0_, symObjAddr: 0xB1C, symBinAddr: 0x100003C00, symSize: 0x3C }
  - { offsetInCU: 0x9026, offset: 0x9026, size: 0x8, addend: 0x0, symName: __ZNSt3__111char_traitsIcE6lengthB8ue170006EPKc, symObjAddr: 0xB58, symBinAddr: 0x100003C3C, symSize: 0x34 }
  - { offsetInCU: 0x9048, offset: 0x9048, size: 0x8, addend: 0x0, symName: __ZNSt3__117__compressed_pairINS_12basic_stringIcNS_11char_traitsIcEENS_9allocatorIcEEE5__repES5_EC2B8ue170006INS_18__default_init_tagESA_EEOT_OT0_, symObjAddr: 0xB8C, symBinAddr: 0x100003C70, symSize: 0x3C }
  - { offsetInCU: 0x909E, offset: 0x909E, size: 0x8, addend: 0x0, symName: __ZNSt3__122__compressed_pair_elemINS_12basic_stringIcNS_11char_traitsIcEENS_9allocatorIcEEE5__repELi0ELb0EEC2B8ue170006ENS_18__default_init_tagE, symObjAddr: 0xBC8, symBinAddr: 0x100003CAC, symSize: 0x14 }
  - { offsetInCU: 0x90D0, offset: 0x90D0, size: 0x8, addend: 0x0, symName: __ZNSt3__122__compressed_pair_elemINS_9allocatorIcEELi1ELb1EEC2B8ue170006ENS_18__default_init_tagE, symObjAddr: 0xBDC, symBinAddr: 0x100003CC0, symSize: 0x2C }
  - { offsetInCU: 0x9102, offset: 0x9102, size: 0x8, addend: 0x0, symName: __ZNSt3__19allocatorIcEC2B8ue170006Ev, symObjAddr: 0xC08, symBinAddr: 0x100003CEC, symSize: 0x2C }
  - { offsetInCU: 0x912A, offset: 0x912A, size: 0x8, addend: 0x0, symName: __ZNSt3__116__non_trivial_ifILb1ENS_9allocatorIcEEEC2B8ue170006Ev, symObjAddr: 0xC34, symBinAddr: 0x100003D18, symSize: 0x14 }
  - { offsetInCU: 0x9152, offset: 0x9152, size: 0x8, addend: 0x0, symName: __ZNSt3__16vectorINS0_INS_12basic_stringIcNS_11char_traitsIcEENS_9allocatorIcEEEENS4_IS6_EEEENS4_IS8_EEED2B8ue170006Ev, symObjAddr: 0xC6C, symBinAddr: 0x100003D50, symSize: 0x44 }
  - { offsetInCU: 0x917A, offset: 0x917A, size: 0x8, addend: 0x0, symName: __ZNSt3__16vectorINS0_INS_12basic_stringIcNS_11char_traitsIcEENS_9allocatorIcEEEENS4_IS6_EEEENS4_IS8_EEE16__destroy_vectorC1B8ue170006ERSA_, symObjAddr: 0xCB0, symBinAddr: 0x100003D94, symSize: 0x34 }
  - { offsetInCU: 0x91B1, offset: 0x91B1, size: 0x8, addend: 0x0, symName: __ZNSt3__16vectorINS0_INS_12basic_stringIcNS_11char_traitsIcEENS_9allocatorIcEEEENS4_IS6_EEEENS4_IS8_EEE16__destroy_vectorclB8ue170006Ev, symObjAddr: 0xCE4, symBinAddr: 0x100003DC8, symSize: 0x90 }
  - { offsetInCU: 0x91D5, offset: 0x91D5, size: 0x8, addend: 0x0, symName: __ZNSt3__16vectorINS0_INS_12basic_stringIcNS_11char_traitsIcEENS_9allocatorIcEEEENS4_IS6_EEEENS4_IS8_EEE16__destroy_vectorC2B8ue170006ERSA_, symObjAddr: 0xD74, symBinAddr: 0x100003E58, symSize: 0x20 }
  - { offsetInCU: 0x920C, offset: 0x920C, size: 0x8, addend: 0x0, symName: __ZNSt3__16vectorINS0_INS_12basic_stringIcNS_11char_traitsIcEENS_9allocatorIcEEEENS4_IS6_EEEENS4_IS8_EEE7__clearB8ue170006Ev, symObjAddr: 0xD94, symBinAddr: 0x100003E78, symSize: 0x28 }
  - { offsetInCU: 0x9230, offset: 0x9230, size: 0x8, addend: 0x0, symName: __ZNKSt3__16vectorINS0_INS_12basic_stringIcNS_11char_traitsIcEENS_9allocatorIcEEEENS4_IS6_EEEENS4_IS8_EEE17__annotate_deleteB8ue170006Ev, symObjAddr: 0xDBC, symBinAddr: 0x100003EA0, symSize: 0xD4 }
  - { offsetInCU: 0x9254, offset: 0x9254, size: 0x8, addend: 0x0, symName: __ZNSt3__116allocator_traitsINS_9allocatorINS_6vectorINS_12basic_stringIcNS_11char_traitsIcEENS1_IcEEEENS1_IS7_EEEEEEE10deallocateB8ue170006ERSA_PS9_m, symObjAddr: 0xE90, symBinAddr: 0x100003F74, symSize: 0x34 }
  - { offsetInCU: 0x9295, offset: 0x9295, size: 0x8, addend: 0x0, symName: __ZNSt3__16vectorINS0_INS_12basic_stringIcNS_11char_traitsIcEENS_9allocatorIcEEEENS4_IS6_EEEENS4_IS8_EEE7__allocB8ue170006Ev, symObjAddr: 0xEC4, symBinAddr: 0x100003FA8, symSize: 0x28 }
  - { offsetInCU: 0x92B9, offset: 0x92B9, size: 0x8, addend: 0x0, symName: __ZNKSt3__16vectorINS0_INS_12basic_stringIcNS_11char_traitsIcEENS_9allocatorIcEEEENS4_IS6_EEEENS4_IS8_EEE8capacityB8ue170006Ev, symObjAddr: 0xEEC, symBinAddr: 0x100003FD0, symSize: 0x40 }
  - { offsetInCU: 0x92DD, offset: 0x92DD, size: 0x8, addend: 0x0, symName: __ZNSt3__16vectorINS0_INS_12basic_stringIcNS_11char_traitsIcEENS_9allocatorIcEEEENS4_IS6_EEEENS4_IS8_EEE22__base_destruct_at_endB8ue170006EPS8_, symObjAddr: 0xF2C, symBinAddr: 0x100004010, symSize: 0x8C }
  - { offsetInCU: 0x931F, offset: 0x931F, size: 0x8, addend: 0x0, symName: __ZNSt3__116allocator_traitsINS_9allocatorINS_6vectorINS_12basic_stringIcNS_11char_traitsIcEENS1_IcEEEENS1_IS7_EEEEEEE7destroyB8ue170006IS9_vEEvRSA_PT_, symObjAddr: 0xFB8, symBinAddr: 0x10000409C, symSize: 0x2C }
  - { offsetInCU: 0x935B, offset: 0x935B, size: 0x8, addend: 0x0, symName: __ZNSt3__19allocatorINS_6vectorINS_12basic_stringIcNS_11char_traitsIcEENS0_IcEEEENS0_IS6_EEEEE7destroyB8ue170006EPS8_, symObjAddr: 0xFF8, symBinAddr: 0x1000040DC, symSize: 0x28 }
  - { offsetInCU: 0x938D, offset: 0x938D, size: 0x8, addend: 0x0, symName: __ZNKSt3__16vectorINS0_INS_12basic_stringIcNS_11char_traitsIcEENS_9allocatorIcEEEENS4_IS6_EEEENS4_IS8_EEE31__annotate_contiguous_containerB8ue170006EPKvSC_SC_SC_, symObjAddr: 0x1020, symBinAddr: 0x100004104, symSize: 0x20 }
  - { offsetInCU: 0x93DD, offset: 0x93DD, size: 0x8, addend: 0x0, symName: __ZNKSt3__16vectorINS0_INS_12basic_stringIcNS_11char_traitsIcEENS_9allocatorIcEEEENS4_IS6_EEEENS4_IS8_EEE4dataB8ue170006Ev, symObjAddr: 0x1040, symBinAddr: 0x100004124, symSize: 0x28 }
  - { offsetInCU: 0x9401, offset: 0x9401, size: 0x8, addend: 0x0, symName: __ZNKSt3__16vectorINS0_INS_12basic_stringIcNS_11char_traitsIcEENS_9allocatorIcEEEENS4_IS6_EEEENS4_IS8_EEE4sizeB8ue170006Ev, symObjAddr: 0x1068, symBinAddr: 0x10000414C, symSize: 0x28 }
  - { offsetInCU: 0x9425, offset: 0x9425, size: 0x8, addend: 0x0, symName: __ZNSt3__19allocatorINS_6vectorINS_12basic_stringIcNS_11char_traitsIcEENS0_IcEEEENS0_IS6_EEEEE10deallocateB8ue170006EPS8_m, symObjAddr: 0x1090, symBinAddr: 0x100004174, symSize: 0x44 }
  - { offsetInCU: 0x9465, offset: 0x9465, size: 0x8, addend: 0x0, symName: __ZNSt3__117__compressed_pairIPNS_6vectorINS_12basic_stringIcNS_11char_traitsIcEENS_9allocatorIcEEEENS5_IS7_EEEENS5_IS9_EEE6secondB8ue170006Ev, symObjAddr: 0x10D4, symBinAddr: 0x1000041B8, symSize: 0x24 }
  - { offsetInCU: 0x9489, offset: 0x9489, size: 0x8, addend: 0x0, symName: __ZNSt3__122__compressed_pair_elemINS_9allocatorINS_6vectorINS_12basic_stringIcNS_11char_traitsIcEENS1_IcEEEENS1_IS7_EEEEEELi1ELb1EE5__getB8ue170006Ev, symObjAddr: 0x10F8, symBinAddr: 0x1000041DC, symSize: 0x14 }
  - { offsetInCU: 0x94AD, offset: 0x94AD, size: 0x8, addend: 0x0, symName: __ZNKSt3__16vectorINS0_INS_12basic_stringIcNS_11char_traitsIcEENS_9allocatorIcEEEENS4_IS6_EEEENS4_IS8_EEE9__end_capB8ue170006Ev, symObjAddr: 0x110C, symBinAddr: 0x1000041F0, symSize: 0x28 }
  - { offsetInCU: 0x94D1, offset: 0x94D1, size: 0x8, addend: 0x0, symName: __ZNKSt3__117__compressed_pairIPNS_6vectorINS_12basic_stringIcNS_11char_traitsIcEENS_9allocatorIcEEEENS5_IS7_EEEENS5_IS9_EEE5firstB8ue170006Ev, symObjAddr: 0x1134, symBinAddr: 0x100004218, symSize: 0x24 }
  - { offsetInCU: 0x94F5, offset: 0x94F5, size: 0x8, addend: 0x0, symName: __ZNKSt3__122__compressed_pair_elemIPNS_6vectorINS_12basic_stringIcNS_11char_traitsIcEENS_9allocatorIcEEEENS5_IS7_EEEELi0ELb0EE5__getB8ue170006Ev, symObjAddr: 0x1158, symBinAddr: 0x10000423C, symSize: 0x14 }
  - { offsetInCU: 0x9519, offset: 0x9519, size: 0x8, addend: 0x0, symName: __ZNSt3__16vectorI11CandlestickNS_9allocatorIS1_EEED2B8ue170006Ev, symObjAddr: 0x116C, symBinAddr: 0x100004250, symSize: 0x44 }
  - { offsetInCU: 0x9541, offset: 0x9541, size: 0x8, addend: 0x0, symName: __ZNSt3__16vectorI11CandlestickNS_9allocatorIS1_EEE16__destroy_vectorC1B8ue170006ERS4_, symObjAddr: 0x11B0, symBinAddr: 0x100004294, symSize: 0x34 }
  - { offsetInCU: 0x9578, offset: 0x9578, size: 0x8, addend: 0x0, symName: __ZNSt3__16vectorI11CandlestickNS_9allocatorIS1_EEE16__destroy_vectorclB8ue170006Ev, symObjAddr: 0x11E4, symBinAddr: 0x1000042C8, symSize: 0x90 }
  - { offsetInCU: 0x959C, offset: 0x959C, size: 0x8, addend: 0x0, symName: __ZNSt3__16vectorI11CandlestickNS_9allocatorIS1_EEE16__destroy_vectorC2B8ue170006ERS4_, symObjAddr: 0x1274, symBinAddr: 0x100004358, symSize: 0x20 }
  - { offsetInCU: 0x95D3, offset: 0x95D3, size: 0x8, addend: 0x0, symName: __ZNSt3__16vectorI11CandlestickNS_9allocatorIS1_EEE7__clearB8ue170006Ev, symObjAddr: 0x1294, symBinAddr: 0x100004378, symSize: 0x28 }
  - { offsetInCU: 0x95F7, offset: 0x95F7, size: 0x8, addend: 0x0, symName: __ZNKSt3__16vectorI11CandlestickNS_9allocatorIS1_EEE17__annotate_deleteB8ue170006Ev, symObjAddr: 0x12BC, symBinAddr: 0x1000043A0, symSize: 0xD4 }
  - { offsetInCU: 0x961B, offset: 0x961B, size: 0x8, addend: 0x0, symName: __ZNSt3__116allocator_traitsINS_9allocatorI11CandlestickEEE10deallocateB8ue170006ERS3_PS2_m, symObjAddr: 0x1390, symBinAddr: 0x100004474, symSize: 0x34 }
  - { offsetInCU: 0x965C, offset: 0x965C, size: 0x8, addend: 0x0, symName: __ZNSt3__16vectorI11CandlestickNS_9allocatorIS1_EEE7__allocB8ue170006Ev, symObjAddr: 0x13C4, symBinAddr: 0x1000044A8, symSize: 0x28 }
  - { offsetInCU: 0x9680, offset: 0x9680, size: 0x8, addend: 0x0, symName: __ZNKSt3__16vectorI11CandlestickNS_9allocatorIS1_EEE8capacityB8ue170006Ev, symObjAddr: 0x13EC, symBinAddr: 0x1000044D0, symSize: 0x40 }
  - { offsetInCU: 0x96A4, offset: 0x96A4, size: 0x8, addend: 0x0, symName: __ZNSt3__16vectorI11CandlestickNS_9allocatorIS1_EEE22__base_destruct_at_endB8ue170006EPS1_, symObjAddr: 0x142C, symBinAddr: 0x100004510, symSize: 0x8C }
  - { offsetInCU: 0x96E6, offset: 0x96E6, size: 0x8, addend: 0x0, symName: __ZNSt3__116allocator_traitsINS_9allocatorI11CandlestickEEE7destroyB8ue170006IS2_vEEvRS3_PT_, symObjAddr: 0x14B8, symBinAddr: 0x10000459C, symSize: 0x2C }
  - { offsetInCU: 0x9722, offset: 0x9722, size: 0x8, addend: 0x0, symName: __ZNSt3__19allocatorI11CandlestickE7destroyB8ue170006EPS1_, symObjAddr: 0x14F8, symBinAddr: 0x1000045DC, symSize: 0x28 }
  - { offsetInCU: 0x9754, offset: 0x9754, size: 0x8, addend: 0x0, symName: __ZN11CandlestickD1Ev, symObjAddr: 0x1520, symBinAddr: 0x100004604, symSize: 0x2C }
  - { offsetInCU: 0x977E, offset: 0x977E, size: 0x8, addend: 0x0, symName: __ZN11CandlestickD2Ev, symObjAddr: 0x154C, symBinAddr: 0x100004630, symSize: 0x2C }
  - { offsetInCU: 0x97A8, offset: 0x97A8, size: 0x8, addend: 0x0, symName: __ZNKSt3__16vectorI11CandlestickNS_9allocatorIS1_EEE31__annotate_contiguous_containerB8ue170006EPKvS6_S6_S6_, symObjAddr: 0x1578, symBinAddr: 0x10000465C, symSize: 0x20 }
  - { offsetInCU: 0x97F8, offset: 0x97F8, size: 0x8, addend: 0x0, symName: __ZNKSt3__16vectorI11CandlestickNS_9allocatorIS1_EEE4dataB8ue170006Ev, symObjAddr: 0x1598, symBinAddr: 0x10000467C, symSize: 0x28 }
  - { offsetInCU: 0x981C, offset: 0x981C, size: 0x8, addend: 0x0, symName: __ZNKSt3__16vectorI11CandlestickNS_9allocatorIS1_EEE4sizeB8ue170006Ev, symObjAddr: 0x15C0, symBinAddr: 0x1000046A4, symSize: 0x28 }
  - { offsetInCU: 0x9840, offset: 0x9840, size: 0x8, addend: 0x0, symName: __ZNSt3__19allocatorI11CandlestickE10deallocateB8ue170006EPS1_m, symObjAddr: 0x15E8, symBinAddr: 0x1000046CC, symSize: 0x44 }
  - { offsetInCU: 0x9880, offset: 0x9880, size: 0x8, addend: 0x0, symName: __ZNSt3__117__compressed_pairIP11CandlestickNS_9allocatorIS1_EEE6secondB8ue170006Ev, symObjAddr: 0x162C, symBinAddr: 0x100004710, symSize: 0x24 }
  - { offsetInCU: 0x98A4, offset: 0x98A4, size: 0x8, addend: 0x0, symName: __ZNSt3__122__compressed_pair_elemINS_9allocatorI11CandlestickEELi1ELb1EE5__getB8ue170006Ev, symObjAddr: 0x1650, symBinAddr: 0x100004734, symSize: 0x14 }
  - { offsetInCU: 0x98C8, offset: 0x98C8, size: 0x8, addend: 0x0, symName: __ZNKSt3__16vectorI11CandlestickNS_9allocatorIS1_EEE9__end_capB8ue170006Ev, symObjAddr: 0x1664, symBinAddr: 0x100004748, symSize: 0x28 }
  - { offsetInCU: 0x98EC, offset: 0x98EC, size: 0x8, addend: 0x0, symName: __ZNKSt3__117__compressed_pairIP11CandlestickNS_9allocatorIS1_EEE5firstB8ue170006Ev, symObjAddr: 0x168C, symBinAddr: 0x100004770, symSize: 0x24 }
  - { offsetInCU: 0x9910, offset: 0x9910, size: 0x8, addend: 0x0, symName: __ZNKSt3__122__compressed_pair_elemIP11CandlestickLi0ELb0EE5__getB8ue170006Ev, symObjAddr: 0x16B0, symBinAddr: 0x100004794, symSize: 0x14 }
  - { offsetInCU: 0x9934, offset: 0x9934, size: 0x8, addend: 0x0, symName: __ZNSt3__16vectorI11CandlestickNS_9allocatorIS1_EEE11__make_iterB8ue170006EPS1_, symObjAddr: 0x16C4, symBinAddr: 0x1000047A8, symSize: 0x30 }
  - { offsetInCU: 0x9967, offset: 0x9967, size: 0x8, addend: 0x0, symName: __ZNSt3__111__wrap_iterIP11CandlestickEC1B8ue170006ES2_, symObjAddr: 0x16F4, symBinAddr: 0x1000047D8, symSize: 0x34 }
  - { offsetInCU: 0x999D, offset: 0x999D, size: 0x8, addend: 0x0, symName: __ZNSt3__111__wrap_iterIP11CandlestickEC2B8ue170006ES2_, symObjAddr: 0x1728, symBinAddr: 0x10000480C, symSize: 0x20 }
  - { offsetInCU: 0x3AAA, offset: 0xD51A, size: 0x8, addend: 0x0, symName: __ZNSt3__17advanceB8ue170006IPKNS_12basic_stringIcNS_11char_traitsIcEENS_9allocatorIcEEEEllvEEvRT_T0_, symObjAddr: 0x2208, symBinAddr: 0x1000062A4, symSize: 0x38 }
  - { offsetInCU: 0x3F52, offset: 0xD9C2, size: 0x8, addend: 0x0, symName: __ZNSt3__124__put_character_sequenceB8ue170006IcNS_11char_traitsIcEEEERNS_13basic_ostreamIT_T0_EES7_PKS4_m, symObjAddr: 0x3528, symBinAddr: 0x1000075C4, symSize: 0x1EC }
  - { offsetInCU: 0x6802, offset: 0x10272, size: 0x8, addend: 0x0, symName: __ZNSt3__1lsB8ue170006INS_11char_traitsIcEEEERNS_13basic_ostreamIcT_EES6_PKc, symObjAddr: 0x724, symBinAddr: 0x100004EF0, symSize: 0x48 }
  - { offsetInCU: 0x6848, offset: 0x102B8, size: 0x8, addend: 0x0, symName: __ZNSt3__1eqB8ue170006IcNS_11char_traitsIcEENS_9allocatorIcEEEEbRKNS_12basic_stringIT_T0_T1_EEPKS6_, symObjAddr: 0xBB8, symBinAddr: 0x10000535C, symSize: 0xAC }
  - { offsetInCU: 0x68AF, offset: 0x1031F, size: 0x8, addend: 0x0, symName: __ZNSt3__14endlB8ue170006IcNS_11char_traitsIcEEEERNS_13basic_ostreamIT_T0_EES7_, symObjAddr: 0xC90, symBinAddr: 0x100005434, symSize: 0x58 }
  - { offsetInCU: 0x68EF, offset: 0x1035F, size: 0x8, addend: 0x0, symName: __ZNSt3__1lsB8ue170006IcNS_11char_traitsIcEENS_9allocatorIcEEEERNS_13basic_ostreamIT_T0_EES9_RKNS_12basic_stringIS6_S7_T1_EE, symObjAddr: 0xCE8, symBinAddr: 0x10000548C, symSize: 0x4C }
  - { offsetInCU: 0x6B52, offset: 0x105C2, size: 0x8, addend: 0x0, symName: __ZNSt3__1neB8ue170006IPK11CandlestickEEbRKNS_11__wrap_iterIT_EES8_, symObjAddr: 0x1264, symBinAddr: 0x100005A08, symSize: 0x34 }
  - { offsetInCU: 0x6B95, offset: 0x10605, size: 0x8, addend: 0x0, symName: __ZNSt3__1eqB8ue170006IPK11CandlestickEEbRKNS_11__wrap_iterIT_EES8_, symObjAddr: 0x12D8, symBinAddr: 0x100005A7C, symSize: 0x48 }
  - { offsetInCU: 0x6BD8, offset: 0x10648, size: 0x8, addend: 0x0, symName: __ZNSt3__18distanceB8ue170006IPKNS_12basic_stringIcNS_11char_traitsIcEENS_9allocatorIcEEEEEENS_15iterator_traitsIT_E15difference_typeESA_SA_, symObjAddr: 0x1E50, symBinAddr: 0x100005EEC, symSize: 0x2C }
  - { offsetInCU: 0x6C1B, offset: 0x1068B, size: 0x8, addend: 0x0, symName: __ZNSt3__14nextB8ue170006IPKNS_12basic_stringIcNS_11char_traitsIcEENS_9allocatorIcEEEEEENS_9enable_ifIXsr29__has_input_iterator_categoryIT_EE5valueESA_E4typeESA_NS_15iterator_traitsISA_E15difference_typeE, symObjAddr: 0x1E7C, symBinAddr: 0x100005F18, symSize: 0x34 }
  - { offsetInCU: 0x6C5E, offset: 0x106CE, size: 0x8, addend: 0x0, symName: __ZNSt3__14copyB8ue170006IPKNS_12basic_stringIcNS_11char_traitsIcEENS_9allocatorIcEEEEPS6_EET0_T_SB_SA_, symObjAddr: 0x1EB0, symBinAddr: 0x100005F4C, symSize: 0x40 }
  - { offsetInCU: 0x6CB8, offset: 0x10728, size: 0x8, addend: 0x0, symName: __ZNSt3__16__copyB8ue170006INS_17_ClassicAlgPolicyEPKNS_12basic_stringIcNS_11char_traitsIcEENS_9allocatorIcEEEES9_PS7_EENS_4pairIT0_T2_EESC_T1_SD_, symObjAddr: 0x1F7C, symBinAddr: 0x100006018, symSize: 0x44 }
  - { offsetInCU: 0x6D24, offset: 0x10794, size: 0x8, addend: 0x0, symName: __ZNSt3__121__convert_to_integralB8ue170006El, symObjAddr: 0x2240, symBinAddr: 0x1000062DC, symSize: 0x14 }
  - { offsetInCU: 0x6D50, offset: 0x107C0, size: 0x8, addend: 0x0, symName: __ZNSt3__19__advanceB8ue170006IPKNS_12basic_stringIcNS_11char_traitsIcEENS_9allocatorIcEEEEEEvRT_NS_15iterator_traitsIS9_E15difference_typeENS_26random_access_iterator_tagE, symObjAddr: 0x2254, symBinAddr: 0x1000062F0, symSize: 0x30 }
  - { offsetInCU: 0x6D9A, offset: 0x1080A, size: 0x8, addend: 0x0, symName: __ZNSt3__130__uninitialized_allocator_copyB8ue170006INS_9allocatorINS_12basic_stringIcNS_11char_traitsIcEENS1_IcEEEEEEPKS6_S9_PS6_EET2_RT_T0_T1_SB_, symObjAddr: 0x22C0, symBinAddr: 0x10000635C, symSize: 0x80 }
  - { offsetInCU: 0x6E37, offset: 0x108A7, size: 0x8, addend: 0x0, symName: __ZNSt3__114__unwrap_rangeB8ue170006IPKNS_12basic_stringIcNS_11char_traitsIcEENS_9allocatorIcEEEES8_EENS_4pairIT0_SA_EET_SC_, symObjAddr: 0x23B8, symBinAddr: 0x100006454, symSize: 0x60 }
  - { offsetInCU: 0x6E83, offset: 0x108F3, size: 0x8, addend: 0x0, symName: __ZNSt3__135__uninitialized_allocator_copy_implB8ue170006INS_9allocatorINS_12basic_stringIcNS_11char_traitsIcEENS1_IcEEEEEEPKS6_S9_PS6_EET2_RT_T0_T1_SB_, symObjAddr: 0x2418, symBinAddr: 0x1000064B4, symSize: 0xF4 }
  - { offsetInCU: 0x6F21, offset: 0x10991, size: 0x8, addend: 0x0, symName: __ZNSt3__113__unwrap_iterB8ue170006IPNS_12basic_stringIcNS_11char_traitsIcEENS_9allocatorIcEEEENS_18__unwrap_iter_implIS7_Lb1EEELi0EEEDTclsrT0_8__unwrapclsr3stdE7declvalIT_EEEESB_, symObjAddr: 0x250C, symBinAddr: 0x1000065A8, symSize: 0x24 }
  - { offsetInCU: 0x6F65, offset: 0x109D5, size: 0x8, addend: 0x0, symName: __ZNSt3__113__rewrap_iterB8ue170006IPNS_12basic_stringIcNS_11char_traitsIcEENS_9allocatorIcEEEES7_NS_18__unwrap_iter_implIS7_Lb1EEEEET_SA_T0_, symObjAddr: 0x2530, symBinAddr: 0x1000065CC, symSize: 0x3C }
  - { offsetInCU: 0x6FBA, offset: 0x10A2A, size: 0x8, addend: 0x0, symName: __ZNSt3__19make_pairB8ue170006IPKNS_12basic_stringIcNS_11char_traitsIcEENS_9allocatorIcEEEES8_EENS_4pairINS_18__unwrap_ref_decayIT_E4typeENSA_IT0_E4typeEEEOSB_OSE_, symObjAddr: 0x256C, symBinAddr: 0x100006608, symSize: 0x38 }
  - { offsetInCU: 0x7009, offset: 0x10A79, size: 0x8, addend: 0x0, symName: __ZNSt3__113__unwrap_iterB8ue170006IPKNS_12basic_stringIcNS_11char_traitsIcEENS_9allocatorIcEEEENS_18__unwrap_iter_implIS8_Lb1EEELi0EEEDTclsrT0_8__unwrapclsr3stdE7declvalIT_EEEESC_, symObjAddr: 0x25A4, symBinAddr: 0x100006640, symSize: 0x24 }
  - { offsetInCU: 0x7176, offset: 0x10BE6, size: 0x8, addend: 0x0, symName: __ZNSt3__112__to_addressB8ue170006IKNS_12basic_stringIcNS_11char_traitsIcEENS_9allocatorIcEEEEEEPT_S9_, symObjAddr: 0x265C, symBinAddr: 0x1000066F8, symSize: 0x14 }
  - { offsetInCU: 0x71AB, offset: 0x10C1B, size: 0x8, addend: 0x0, symName: __ZNSt3__122__make_exception_guardB8ue170006INS_29_AllocatorDestroyRangeReverseINS_9allocatorINS_12basic_stringIcNS_11char_traitsIcEENS2_IcEEEEEEPS7_EEEENS_28__exception_guard_exceptionsIT_EESC_, symObjAddr: 0x2670, symBinAddr: 0x10000670C, symSize: 0x4C }
  - { offsetInCU: 0x71E1, offset: 0x10C51, size: 0x8, addend: 0x0, symName: __ZNSt3__119__allocator_destroyB8ue170006INS_9allocatorINS_12basic_stringIcNS_11char_traitsIcEENS1_IcEEEEEENS_16reverse_iteratorIPS6_EESA_EEvRT_T0_T1_, symObjAddr: 0x2900, symBinAddr: 0x10000699C, symSize: 0x70 }
  - { offsetInCU: 0x7244, offset: 0x10CB4, size: 0x8, addend: 0x0, symName: __ZNSt3__1neB8ue170006IPNS_12basic_stringIcNS_11char_traitsIcEENS_9allocatorIcEEEES7_EEbRKNS_16reverse_iteratorIT_EERKNS8_IT0_EE, symObjAddr: 0x29A4, symBinAddr: 0x100006A40, symSize: 0x48 }
  - { offsetInCU: 0x7290, offset: 0x10D00, size: 0x8, addend: 0x0, symName: __ZNSt3__112__to_addressB8ue170006INS_16reverse_iteratorIPNS_12basic_stringIcNS_11char_traitsIcEENS_9allocatorIcEEEEEEvEEu7__decayIDTclsr19__to_address_helperIT_EE6__callclsr3stdE7declvalIRKSA_EEEEESC_, symObjAddr: 0x29EC, symBinAddr: 0x100006A88, symSize: 0x24 }
  - { offsetInCU: 0x7344, offset: 0x10DB4, size: 0x8, addend: 0x0, symName: __ZNSt3__123__dispatch_copy_or_moveB8ue170006INS_17_ClassicAlgPolicyENS_11__copy_loopIS1_EENS_14__copy_trivialEPKNS_12basic_stringIcNS_11char_traitsIcEENS_9allocatorIcEEEESC_PSA_EENS_4pairIT2_T4_EESF_T3_SG_, symObjAddr: 0x2B90, symBinAddr: 0x100006C2C, symSize: 0x44 }
  - { offsetInCU: 0x73C2, offset: 0x10E32, size: 0x8, addend: 0x0, symName: __ZNSt3__121__unwrap_and_dispatchB8ue170006INS_10__overloadINS_11__copy_loopINS_17_ClassicAlgPolicyEEENS_14__copy_trivialEEEPKNS_12basic_stringIcNS_11char_traitsIcEENS_9allocatorIcEEEESE_PSC_Li0EEENS_4pairIT0_T2_EESH_T1_SI_, symObjAddr: 0x2BD4, symBinAddr: 0x100006C70, symSize: 0xB4 }
  - { offsetInCU: 0x7580, offset: 0x10FF0, size: 0x8, addend: 0x0, symName: __ZNSt3__19make_pairB8ue170006IPKNS_12basic_stringIcNS_11char_traitsIcEENS_9allocatorIcEEEEPS6_EENS_4pairINS_18__unwrap_ref_decayIT_E4typeENSB_IT0_E4typeEEEOSC_OSF_, symObjAddr: 0x2D10, symBinAddr: 0x100006DAC, symSize: 0x38 }
  - { offsetInCU: 0x75CF, offset: 0x1103F, size: 0x8, addend: 0x0, symName: __ZNSt3__114__rewrap_rangeB8ue170006IPKNS_12basic_stringIcNS_11char_traitsIcEENS_9allocatorIcEEEES8_EET_S9_T0_, symObjAddr: 0x2D48, symBinAddr: 0x100006DE4, symSize: 0x2C }
  - { offsetInCU: 0x761B, offset: 0x1108B, size: 0x8, addend: 0x0, symName: __ZNSt3__113__rewrap_iterB8ue170006IPKNS_12basic_stringIcNS_11char_traitsIcEENS_9allocatorIcEEEES8_NS_18__unwrap_iter_implIS8_Lb1EEEEET_SB_T0_, symObjAddr: 0x2DE4, symBinAddr: 0x100006E80, symSize: 0x3C }
  - { offsetInCU: 0x7670, offset: 0x110E0, size: 0x8, addend: 0x0, symName: __ZNSt3__119__allocate_at_leastB8ue170006INS_9allocatorINS_12basic_stringIcNS_11char_traitsIcEENS1_IcEEEEEEEENS_19__allocation_resultINS_16allocator_traitsIT_E7pointerEEERSA_m, symObjAddr: 0x3068, symBinAddr: 0x100007104, symSize: 0x40 }
  - { offsetInCU: 0x76B3, offset: 0x11123, size: 0x8, addend: 0x0, symName: __ZNSt3__13minB8ue170006ImEERKT_S3_S3_, symObjAddr: 0x3170, symBinAddr: 0x10000720C, symSize: 0x2C }
  - { offsetInCU: 0x76F6, offset: 0x11166, size: 0x8, addend: 0x0, symName: __ZNSt3__13minB8ue170006ImNS_6__lessIvvEEEERKT_S5_S5_T0_, symObjAddr: 0x31E8, symBinAddr: 0x100007284, symSize: 0x54 }
  - { offsetInCU: 0x7797, offset: 0x11207, size: 0x8, addend: 0x0, symName: __ZNSt3__120__throw_length_errorB8ue170006EPKc, symObjAddr: 0x32C0, symBinAddr: 0x10000735C, symSize: 0x64 }
  - { offsetInCU: 0x77C2, offset: 0x11232, size: 0x8, addend: 0x0, symName: __ZNSt3__117__libcpp_allocateB8ue170006Emm, symObjAddr: 0x3434, symBinAddr: 0x1000074D0, symSize: 0x28 }
  - { offsetInCU: 0x77FF, offset: 0x1126F, size: 0x8, addend: 0x0, symName: __ZNSt3__121__libcpp_operator_newB8ue170006IJmEEEPvDpT_, symObjAddr: 0x345C, symBinAddr: 0x1000074F8, symSize: 0x24 }
  - { offsetInCU: 0x7838, offset: 0x112A8, size: 0x8, addend: 0x0, symName: __ZNSt3__13maxB8ue170006ImEERKT_S3_S3_, symObjAddr: 0x3480, symBinAddr: 0x10000751C, symSize: 0x2C }
  - { offsetInCU: 0x787B, offset: 0x112EB, size: 0x8, addend: 0x0, symName: __ZNSt3__13maxB8ue170006ImNS_6__lessIvvEEEERKT_S5_S5_T0_, symObjAddr: 0x34AC, symBinAddr: 0x100007548, symSize: 0x54 }
  - { offsetInCU: 0x78D5, offset: 0x11345, size: 0x8, addend: 0x0, symName: __ZNSt3__110__distanceB8ue170006IPKNS_12basic_stringIcNS_11char_traitsIcEENS_9allocatorIcEEEEEENS_15iterator_traitsIT_E15difference_typeESA_SA_NS_26random_access_iterator_tagE, symObjAddr: 0x3500, symBinAddr: 0x10000759C, symSize: 0x28 }
  - { offsetInCU: 0x7922, offset: 0x11392, size: 0x8, addend: 0x0, symName: __ZNSt3__116__pad_and_outputB8ue170006IcNS_11char_traitsIcEEEENS_19ostreambuf_iteratorIT_T0_EES6_PKS4_S8_S8_RNS_8ios_baseES4_, symObjAddr: 0x3730, symBinAddr: 0x1000077CC, symSize: 0x240 }
  - { offsetInCU: 0x79F1, offset: 0x11461, size: 0x8, addend: 0x0, symName: __ZNSt3__112__to_addressB8ue170006IKcEEPT_S3_, symObjAddr: 0x3BA0, symBinAddr: 0x100007C3C, symSize: 0x14 }
  - { offsetInCU: 0x7A59, offset: 0x114C9, size: 0x8, addend: 0x0, symName: __ZNSt3__19use_facetB8ue170006INS_5ctypeIcEEEERKT_RKNS_6localeE, symObjAddr: 0x3E20, symBinAddr: 0x100007EBC, symSize: 0x2C }
  - { offsetInCU: 0x81BC, offset: 0x11C2C, size: 0x8, addend: 0x0, symName: __ZSt28__throw_bad_array_new_lengthB8ue170006v, symObjAddr: 0x3400, symBinAddr: 0x10000749C, symSize: 0x34 }
  - { offsetInCU: 0xA737, offset: 0x141A7, size: 0x8, addend: 0x0, symName: __ZN4MenuC2Ev, symObjAddr: 0x0, symBinAddr: 0x10000482C, symSize: 0x530 }
  - { offsetInCU: 0xA762, offset: 0x141D2, size: 0x8, addend: 0x0, symName: __ZNSt3__16vectorINS_12basic_stringIcNS_11char_traitsIcEENS_9allocatorIcEEEENS4_IS6_EEEC1B8ue170006Ev, symObjAddr: 0x530, symBinAddr: 0x100004D5C, symSize: 0x2C }
  - { offsetInCU: 0xA78A, offset: 0x141FA, size: 0x8, addend: 0x0, symName: __ZNSt3__112basic_stringIcNS_11char_traitsIcEENS_9allocatorIcEEEC1B8ue170006Ev, symObjAddr: 0x55C, symBinAddr: 0x100004D88, symSize: 0x2C }
  - { offsetInCU: 0xA7B7, offset: 0x14227, size: 0x8, addend: 0x0, symName: __ZNSt3__16vectorINS_12basic_stringIcNS_11char_traitsIcEENS_9allocatorIcEEEENS4_IS6_EEEaSB8ue170006ESt16initializer_listIS6_E, symObjAddr: 0x5BC, symBinAddr: 0x100004DB4, symSize: 0x60 }
  - { offsetInCU: 0xA7EA, offset: 0x1425A, size: 0x8, addend: 0x0, symName: __ZN4MenuC1Ev, symObjAddr: 0x648, symBinAddr: 0x100004E14, symSize: 0x2C }
  - { offsetInCU: 0xA814, offset: 0x14284, size: 0x8, addend: 0x0, symName: __ZN4Menu7runMenuEv, symObjAddr: 0x674, symBinAddr: 0x100004E40, symSize: 0xB0 }
  - { offsetInCU: 0xA857, offset: 0x142C7, size: 0x8, addend: 0x0, symName: __ZN4Menu16displayCountriesEv, symObjAddr: 0x76C, symBinAddr: 0x100004F38, symSize: 0xE4 }
  - { offsetInCU: 0xA89A, offset: 0x1430A, size: 0x8, addend: 0x0, symName: __ZN4Menu8getInputEii, symObjAddr: 0x850, symBinAddr: 0x10000501C, symSize: 0x114 }
  - { offsetInCU: 0xA8EB, offset: 0x1435B, size: 0x8, addend: 0x0, symName: __ZN4Menu13selectCountryEv, symObjAddr: 0x98C, symBinAddr: 0x100005130, symSize: 0xFC }
  - { offsetInCU: 0xA920, offset: 0x14390, size: 0x8, addend: 0x0, symName: __ZN4Menu15selectTimeFrameEv, symObjAddr: 0xA88, symBinAddr: 0x10000522C, symSize: 0x130 }
  - { offsetInCU: 0xA955, offset: 0x143C5, size: 0x8, addend: 0x0, symName: __ZNSt3__113basic_ostreamIcNS_11char_traitsIcEEElsB8ue170006EPFRS3_S4_E, symObjAddr: 0xC64, symBinAddr: 0x100005408, symSize: 0x2C }
  - { offsetInCU: 0xA987, offset: 0x143F7, size: 0x8, addend: 0x0, symName: __ZNSt3__16vectorINS_12basic_stringIcNS_11char_traitsIcEENS_9allocatorIcEEEENS4_IS6_EEEixB8ue170006Em, symObjAddr: 0xD34, symBinAddr: 0x1000054D8, symSize: 0x2C }
  - { offsetInCU: 0xA9BD, offset: 0x1442D, size: 0x8, addend: 0x0, symName: __ZNSt3__112basic_stringIcNS_11char_traitsIcEENS_9allocatorIcEEEaSB8ue170006EPKc, symObjAddr: 0xD60, symBinAddr: 0x100005504, symSize: 0x2C }
  - { offsetInCU: 0xA9F0, offset: 0x14460, size: 0x8, addend: 0x0, symName: __ZN4Menu18selectSpecificTimeEv, symObjAddr: 0xD8C, symBinAddr: 0x100005530, symSize: 0x1A8 }
  - { offsetInCU: 0xAA17, offset: 0x14487, size: 0x8, addend: 0x0, symName: __ZN4Menu14askForDataTypeEv, symObjAddr: 0xF34, symBinAddr: 0x1000056D8, symSize: 0x104 }
  - { offsetInCU: 0xAA4C, offset: 0x144BC, size: 0x8, addend: 0x0, symName: __ZNKSt3__19basic_iosIcNS_11char_traitsIcEEEntB8ue170006Ev, symObjAddr: 0x1038, symBinAddr: 0x1000057DC, symSize: 0x28 }
  - { offsetInCU: 0xAA70, offset: 0x144E0, size: 0x8, addend: 0x0, symName: __ZNSt3__19basic_iosIcNS_11char_traitsIcEEE5clearB8ue170006Ej, symObjAddr: 0x1060, symBinAddr: 0x100005804, symSize: 0x2C }
  - { offsetInCU: 0xAAA3, offset: 0x14513, size: 0x8, addend: 0x0, symName: __ZNSt3__114numeric_limitsIlE3maxB8ue170006Ev, symObjAddr: 0x108C, symBinAddr: 0x100005830, symSize: 0x14 }
  - { offsetInCU: 0xAAB7, offset: 0x14527, size: 0x8, addend: 0x0, symName: __ZNK4Menu20getDataTypeSelectionEv, symObjAddr: 0x10A0, symBinAddr: 0x100005844, symSize: 0x18 }
  - { offsetInCU: 0xAADE, offset: 0x1454E, size: 0x8, addend: 0x0, symName: __ZNK4Menu14getSelectedDayEv, symObjAddr: 0x10B8, symBinAddr: 0x10000585C, symSize: 0x18 }
  - { offsetInCU: 0xAB05, offset: 0x14575, size: 0x8, addend: 0x0, symName: __ZNK4Menu15getSelectedYearEv, symObjAddr: 0x10D0, symBinAddr: 0x100005874, symSize: 0x18 }
  - { offsetInCU: 0xAB2C, offset: 0x1459C, size: 0x8, addend: 0x0, symName: __ZNK4Menu16getSelectedMonthEv, symObjAddr: 0x10E8, symBinAddr: 0x10000588C, symSize: 0x18 }
  - { offsetInCU: 0xAB53, offset: 0x145C3, size: 0x8, addend: 0x0, symName: __ZNK4Menu18getSelectedCountryEv, symObjAddr: 0x1100, symBinAddr: 0x1000058A4, symSize: 0x3C }
  - { offsetInCU: 0xAB7A, offset: 0x145EA, size: 0x8, addend: 0x0, symName: __ZN4Menu11displayDataERKNSt3__16vectorI11CandlestickNS0_9allocatorIS2_EEEE, symObjAddr: 0x113C, symBinAddr: 0x1000058E0, symSize: 0xC8 }
  - { offsetInCU: 0xAC19, offset: 0x14689, size: 0x8, addend: 0x0, symName: __ZNKSt3__16vectorI11CandlestickNS_9allocatorIS1_EEE5beginB8ue170006Ev, symObjAddr: 0x1204, symBinAddr: 0x1000059A8, symSize: 0x30 }
  - { offsetInCU: 0xAC3F, offset: 0x146AF, size: 0x8, addend: 0x0, symName: __ZNKSt3__16vectorI11CandlestickNS_9allocatorIS1_EEE3endB8ue170006Ev, symObjAddr: 0x1234, symBinAddr: 0x1000059D8, symSize: 0x30 }
  - { offsetInCU: 0xAC65, offset: 0x146D5, size: 0x8, addend: 0x0, symName: __ZNKSt3__111__wrap_iterIPK11CandlestickEdeB8ue170006Ev, symObjAddr: 0x1298, symBinAddr: 0x100005A3C, symSize: 0x18 }
  - { offsetInCU: 0xAC89, offset: 0x146F9, size: 0x8, addend: 0x0, symName: __ZNSt3__111__wrap_iterIPK11CandlestickEppB8ue170006Ev, symObjAddr: 0x12B0, symBinAddr: 0x100005A54, symSize: 0x20 }
  - { offsetInCU: 0xACAD, offset: 0x1471D, size: 0x8, addend: 0x0, symName: __ZNSt3__123__libcpp_numeric_limitsIlLb1EE3maxB8ue170006Ev, symObjAddr: 0x12D0, symBinAddr: 0x100005A74, symSize: 0x8 }
  - { offsetInCU: 0xACC1, offset: 0x14731, size: 0x8, addend: 0x0, symName: __ZNKSt3__111__wrap_iterIPK11CandlestickE4baseB8ue170006Ev, symObjAddr: 0x1320, symBinAddr: 0x100005AC4, symSize: 0x18 }
  - { offsetInCU: 0xACE5, offset: 0x14755, size: 0x8, addend: 0x0, symName: __ZNSt3__16vectorINS_12basic_stringIcNS_11char_traitsIcEENS_9allocatorIcEEEENS4_IS6_EEEC2B8ue170006Ev, symObjAddr: 0x1338, symBinAddr: 0x100005ADC, symSize: 0x4C }
  - { offsetInCU: 0xAD17, offset: 0x14787, size: 0x8, addend: 0x0, symName: __ZNSt3__117__compressed_pairIPNS_12basic_stringIcNS_11char_traitsIcEENS_9allocatorIcEEEENS4_IS6_EEEC1B8ue170006IDnNS_18__default_init_tagEEEOT_OT0_, symObjAddr: 0x1384, symBinAddr: 0x100005B28, symSize: 0x3C }
  - { offsetInCU: 0xAD6D, offset: 0x147DD, size: 0x8, addend: 0x0, symName: __ZNSt3__117__compressed_pairIPNS_12basic_stringIcNS_11char_traitsIcEENS_9allocatorIcEEEENS4_IS6_EEEC2B8ue170006IDnNS_18__default_init_tagEEEOT_OT0_, symObjAddr: 0x13CC, symBinAddr: 0x100005B64, symSize: 0x40 }
  - { offsetInCU: 0xADC3, offset: 0x14833, size: 0x8, addend: 0x0, symName: __ZNSt3__122__compressed_pair_elemIPNS_12basic_stringIcNS_11char_traitsIcEENS_9allocatorIcEEEELi0ELb0EEC2B8ue170006IDnvEEOT_, symObjAddr: 0x140C, symBinAddr: 0x100005BA4, symSize: 0x1C }
  - { offsetInCU: 0xAE03, offset: 0x14873, size: 0x8, addend: 0x0, symName: __ZNSt3__122__compressed_pair_elemINS_9allocatorINS_12basic_stringIcNS_11char_traitsIcEENS1_IcEEEEEELi1ELb1EEC2B8ue170006ENS_18__default_init_tagE, symObjAddr: 0x1428, symBinAddr: 0x100005BC0, symSize: 0x2C }
  - { offsetInCU: 0xAE35, offset: 0x148A5, size: 0x8, addend: 0x0, symName: __ZNSt3__19allocatorINS_12basic_stringIcNS_11char_traitsIcEENS0_IcEEEEEC2B8ue170006Ev, symObjAddr: 0x1454, symBinAddr: 0x100005BEC, symSize: 0x2C }
  - { offsetInCU: 0xAE5D, offset: 0x148CD, size: 0x8, addend: 0x0, symName: __ZNSt3__116__non_trivial_ifILb1ENS_9allocatorINS_12basic_stringIcNS_11char_traitsIcEENS1_IcEEEEEEEC2B8ue170006Ev, symObjAddr: 0x1480, symBinAddr: 0x100005C18, symSize: 0x14 }
  - { offsetInCU: 0xAE85, offset: 0x148F5, size: 0x8, addend: 0x0, symName: __ZNSt3__112basic_stringIcNS_11char_traitsIcEENS_9allocatorIcEEEC2B8ue170006Ev, symObjAddr: 0x1494, symBinAddr: 0x100005C2C, symSize: 0x48 }
  - { offsetInCU: 0xAEAD, offset: 0x1491D, size: 0x8, addend: 0x0, symName: __ZNSt3__112basic_stringIcNS_11char_traitsIcEENS_9allocatorIcEEE14__default_initB8ue170006Ev, symObjAddr: 0x1518, symBinAddr: 0x100005C74, symSize: 0x40 }
  - { offsetInCU: 0xAED1, offset: 0x14941, size: 0x8, addend: 0x0, symName: __ZNSt3__117__compressed_pairINS_12basic_stringIcNS_11char_traitsIcEENS_9allocatorIcEEE5__repES5_E5firstB8ue170006Ev, symObjAddr: 0x1614, symBinAddr: 0x100005CB4, symSize: 0x24 }
  - { offsetInCU: 0xAEF5, offset: 0x14965, size: 0x8, addend: 0x0, symName: __ZNSt3__122__compressed_pair_elemINS_12basic_stringIcNS_11char_traitsIcEENS_9allocatorIcEEE5__repELi0ELb0EE5__getB8ue170006Ev, symObjAddr: 0x1638, symBinAddr: 0x100005CD8, symSize: 0x14 }
  - { offsetInCU: 0xAF19, offset: 0x14989, size: 0x8, addend: 0x0, symName: __ZNSt3__16vectorINS_12basic_stringIcNS_11char_traitsIcEENS_9allocatorIcEEEENS4_IS6_EEE6assignIPKS6_Li0EEEvT_SC_, symObjAddr: 0x1C50, symBinAddr: 0x100005CEC, symSize: 0x5C }
  - { offsetInCU: 0xAF6C, offset: 0x149DC, size: 0x8, addend: 0x0, symName: __ZNKSt16initializer_listINSt3__112basic_stringIcNS0_11char_traitsIcEENS0_9allocatorIcEEEEE5beginB8ue170006Ev, symObjAddr: 0x1CAC, symBinAddr: 0x100005D48, symSize: 0x18 }
  - { offsetInCU: 0xAF90, offset: 0x14A00, size: 0x8, addend: 0x0, symName: __ZNKSt16initializer_listINSt3__112basic_stringIcNS0_11char_traitsIcEENS0_9allocatorIcEEEEE3endB8ue170006Ev, symObjAddr: 0x1CC4, symBinAddr: 0x100005D60, symSize: 0x28 }
  - { offsetInCU: 0xAFB4, offset: 0x14A24, size: 0x8, addend: 0x0, symName: __ZNSt3__16vectorINS_12basic_stringIcNS_11char_traitsIcEENS_9allocatorIcEEEENS4_IS6_EEE18__assign_with_sizeB8ue170006IPKS6_SB_EEvT_T0_l, symObjAddr: 0x1CEC, symBinAddr: 0x100005D88, symSize: 0x164 }
  - { offsetInCU: 0xB062, offset: 0x14AD2, size: 0x8, addend: 0x0, symName: __ZNSt3__16vectorINS_12basic_stringIcNS_11char_traitsIcEENS_9allocatorIcEEEENS4_IS6_EEE18__construct_at_endIPKS6_SB_EEvT_T0_m, symObjAddr: 0x1EF0, symBinAddr: 0x100005F8C, symSize: 0x8C }
  - { offsetInCU: 0xB0D6, offset: 0x14B46, size: 0x8, addend: 0x0, symName: __ZNSt3__16vectorINS_12basic_stringIcNS_11char_traitsIcEENS_9allocatorIcEEEENS4_IS6_EEE17__destruct_at_endB8ue170006EPS6_, symObjAddr: 0x1FC0, symBinAddr: 0x10000605C, symSize: 0x4C }
  - { offsetInCU: 0xB118, offset: 0x14B88, size: 0x8, addend: 0x0, symName: __ZNSt3__16vectorINS_12basic_stringIcNS_11char_traitsIcEENS_9allocatorIcEEEENS4_IS6_EEE13__vdeallocateEv, symObjAddr: 0x200C, symBinAddr: 0x1000060A8, symSize: 0x94 }
  - { offsetInCU: 0xB13E, offset: 0x14BAE, size: 0x8, addend: 0x0, symName: __ZNSt3__16vectorINS_12basic_stringIcNS_11char_traitsIcEENS_9allocatorIcEEEENS4_IS6_EEE11__vallocateB8ue170006Em, symObjAddr: 0x20A0, symBinAddr: 0x10000613C, symSize: 0xB4 }
  - { offsetInCU: 0xB180, offset: 0x14BF0, size: 0x8, addend: 0x0, symName: __ZNKSt3__16vectorINS_12basic_stringIcNS_11char_traitsIcEENS_9allocatorIcEEEENS4_IS6_EEE11__recommendB8ue170006Em, symObjAddr: 0x2154, symBinAddr: 0x1000061F0, symSize: 0xB4 }
  - { offsetInCU: 0xB1EC, offset: 0x14C5C, size: 0x8, addend: 0x0, symName: __ZNSt3__16vectorINS_12basic_stringIcNS_11char_traitsIcEENS_9allocatorIcEEEENS4_IS6_EEE21_ConstructTransactionC1B8ue170006ERS8_m, symObjAddr: 0x2284, symBinAddr: 0x100006320, symSize: 0x3C }
  - { offsetInCU: 0xB232, offset: 0x14CA2, size: 0x8, addend: 0x0, symName: __ZNSt3__16vectorINS_12basic_stringIcNS_11char_traitsIcEENS_9allocatorIcEEEENS4_IS6_EEE21_ConstructTransactionD1B8ue170006Ev, symObjAddr: 0x2340, symBinAddr: 0x1000063DC, symSize: 0x2C }
  - { offsetInCU: 0xB25A, offset: 0x14CCA, size: 0x8, addend: 0x0, symName: __ZNSt3__16vectorINS_12basic_stringIcNS_11char_traitsIcEENS_9allocatorIcEEEENS4_IS6_EEE21_ConstructTransactionC2B8ue170006ERS8_m, symObjAddr: 0x236C, symBinAddr: 0x100006408, symSize: 0x4C }
  - { offsetInCU: 0xB2BE, offset: 0x14D2E, size: 0x8, addend: 0x0, symName: __ZNSt3__14pairIPKNS_12basic_stringIcNS_11char_traitsIcEENS_9allocatorIcEEEES8_EC1B8ue170006IS8_S8_LPv0EEEOT_OT0_, symObjAddr: 0x25C8, symBinAddr: 0x100006664, symSize: 0x3C }
  - { offsetInCU: 0xB31B, offset: 0x14D8B, size: 0x8, addend: 0x0, symName: __ZNSt3__14pairIPKNS_12basic_stringIcNS_11char_traitsIcEENS_9allocatorIcEEEES8_EC2B8ue170006IS8_S8_LPv0EEEOT_OT0_, symObjAddr: 0x2604, symBinAddr: 0x1000066A0, symSize: 0x34 }
  - { offsetInCU: 0xB378, offset: 0x14DE8, size: 0x8, addend: 0x0, symName: __ZNSt3__118__unwrap_iter_implIPKNS_12basic_stringIcNS_11char_traitsIcEENS_9allocatorIcEEEELb1EE8__unwrapB8ue170006ES8_, symObjAddr: 0x2638, symBinAddr: 0x1000066D4, symSize: 0x24 }
  - { offsetInCU: 0xB39A, offset: 0x14E0A, size: 0x8, addend: 0x0, symName: __ZNSt3__129_AllocatorDestroyRangeReverseINS_9allocatorINS_12basic_stringIcNS_11char_traitsIcEENS1_IcEEEEEEPS6_EC1B8ue170006ERS7_RS8_SB_, symObjAddr: 0x26BC, symBinAddr: 0x100006758, symSize: 0x44 }
  - { offsetInCU: 0xB3EF, offset: 0x14E5F, size: 0x8, addend: 0x0, symName: __ZNSt3__116allocator_traitsINS_9allocatorINS_12basic_stringIcNS_11char_traitsIcEENS1_IcEEEEEEE9constructB8ue170006IS6_JRKS6_EvEEvRS7_PT_DpOT0_, symObjAddr: 0x2700, symBinAddr: 0x10000679C, symSize: 0x34 }
  - { offsetInCU: 0xB445, offset: 0x14EB5, size: 0x8, addend: 0x0, symName: __ZNSt3__128__exception_guard_exceptionsINS_29_AllocatorDestroyRangeReverseINS_9allocatorINS_12basic_stringIcNS_11char_traitsIcEENS2_IcEEEEEEPS7_EEE10__completeB8ue170006Ev, symObjAddr: 0x2734, symBinAddr: 0x1000067D0, symSize: 0x1C }
  - { offsetInCU: 0xB469, offset: 0x14ED9, size: 0x8, addend: 0x0, symName: __ZNSt3__128__exception_guard_exceptionsINS_29_AllocatorDestroyRangeReverseINS_9allocatorINS_12basic_stringIcNS_11char_traitsIcEENS2_IcEEEEEEPS7_EEED1B8ue170006Ev, symObjAddr: 0x2750, symBinAddr: 0x1000067EC, symSize: 0x2C }
  - { offsetInCU: 0xB491, offset: 0x14F01, size: 0x8, addend: 0x0, symName: __ZNSt3__128__exception_guard_exceptionsINS_29_AllocatorDestroyRangeReverseINS_9allocatorINS_12basic_stringIcNS_11char_traitsIcEENS2_IcEEEEEEPS7_EEEC1B8ue170006ESA_, symObjAddr: 0x277C, symBinAddr: 0x100006818, symSize: 0x34 }
  - { offsetInCU: 0xB4C8, offset: 0x14F38, size: 0x8, addend: 0x0, symName: __ZNSt3__128__exception_guard_exceptionsINS_29_AllocatorDestroyRangeReverseINS_9allocatorINS_12basic_stringIcNS_11char_traitsIcEENS2_IcEEEEEEPS7_EEEC2B8ue170006ESA_, symObjAddr: 0x27B0, symBinAddr: 0x10000684C, symSize: 0x30 }
  - { offsetInCU: 0xB4FF, offset: 0x14F6F, size: 0x8, addend: 0x0, symName: __ZNSt3__129_AllocatorDestroyRangeReverseINS_9allocatorINS_12basic_stringIcNS_11char_traitsIcEENS1_IcEEEEEEPS6_EC2B8ue170006ERS7_RS8_SB_, symObjAddr: 0x27E0, symBinAddr: 0x10000687C, symSize: 0x38 }
  - { offsetInCU: 0xB554, offset: 0x14FC4, size: 0x8, addend: 0x0, symName: __ZNSt3__19allocatorINS_12basic_stringIcNS_11char_traitsIcEENS0_IcEEEEE9constructB8ue170006IS5_JRKS5_EEEvPT_DpOT0_, symObjAddr: 0x2818, symBinAddr: 0x1000068B4, symSize: 0x30 }
  - { offsetInCU: 0xB5A8, offset: 0x15018, size: 0x8, addend: 0x0, symName: __ZNSt3__128__exception_guard_exceptionsINS_29_AllocatorDestroyRangeReverseINS_9allocatorINS_12basic_stringIcNS_11char_traitsIcEENS2_IcEEEEEEPS7_EEED2B8ue170006Ev, symObjAddr: 0x2848, symBinAddr: 0x1000068E4, symSize: 0x50 }
  - { offsetInCU: 0xB5D0, offset: 0x15040, size: 0x8, addend: 0x0, symName: __ZNKSt3__129_AllocatorDestroyRangeReverseINS_9allocatorINS_12basic_stringIcNS_11char_traitsIcEENS1_IcEEEEEEPS6_EclB8ue170006Ev, symObjAddr: 0x2898, symBinAddr: 0x100006934, symSize: 0x68 }
  - { offsetInCU: 0xB5F4, offset: 0x15064, size: 0x8, addend: 0x0, symName: __ZNSt3__116reverse_iteratorIPNS_12basic_stringIcNS_11char_traitsIcEENS_9allocatorIcEEEEEC1B8ue170006ES7_, symObjAddr: 0x2970, symBinAddr: 0x100006A0C, symSize: 0x34 }
  - { offsetInCU: 0xB62A, offset: 0x1509A, size: 0x8, addend: 0x0, symName: __ZNSt3__116reverse_iteratorIPNS_12basic_stringIcNS_11char_traitsIcEENS_9allocatorIcEEEEEppB8ue170006Ev, symObjAddr: 0x2A10, symBinAddr: 0x100006AAC, symSize: 0x20 }
  - { offsetInCU: 0xB64E, offset: 0x150BE, size: 0x8, addend: 0x0, symName: __ZNKSt3__116reverse_iteratorIPNS_12basic_stringIcNS_11char_traitsIcEENS_9allocatorIcEEEEE4baseB8ue170006Ev, symObjAddr: 0x2A30, symBinAddr: 0x100006ACC, symSize: 0x18 }
  - { offsetInCU: 0xB677, offset: 0x150E7, size: 0x8, addend: 0x0, symName: __ZNSt3__119__to_address_helperINS_16reverse_iteratorIPNS_12basic_stringIcNS_11char_traitsIcEENS_9allocatorIcEEEEEEvE6__callB8ue170006ERKS9_, symObjAddr: 0x2A48, symBinAddr: 0x100006AE4, symSize: 0x38 }
  - { offsetInCU: 0xB699, offset: 0x15109, size: 0x8, addend: 0x0, symName: __ZNKSt3__116reverse_iteratorIPNS_12basic_stringIcNS_11char_traitsIcEENS_9allocatorIcEEEEEptB8ue170006Ev, symObjAddr: 0x2A80, symBinAddr: 0x100006B1C, symSize: 0x24 }
  - { offsetInCU: 0xB6BD, offset: 0x1512D, size: 0x8, addend: 0x0, symName: __ZNKSt3__116reverse_iteratorIPNS_12basic_stringIcNS_11char_traitsIcEENS_9allocatorIcEEEEEdeB8ue170006Ev, symObjAddr: 0x2AA4, symBinAddr: 0x100006B40, symSize: 0x28 }
  - { offsetInCU: 0xB6EF, offset: 0x1515F, size: 0x8, addend: 0x0, symName: __ZNSt3__116reverse_iteratorIPNS_12basic_stringIcNS_11char_traitsIcEENS_9allocatorIcEEEEEC2B8ue170006ES7_, symObjAddr: 0x2ACC, symBinAddr: 0x100006B68, symSize: 0x28 }
  - { offsetInCU: 0xB725, offset: 0x15195, size: 0x8, addend: 0x0, symName: __ZNSt3__118__unwrap_iter_implIPNS_12basic_stringIcNS_11char_traitsIcEENS_9allocatorIcEEEELb1EE8__unwrapB8ue170006ES7_, symObjAddr: 0x2AF4, symBinAddr: 0x100006B90, symSize: 0x24 }
  - { offsetInCU: 0xB747, offset: 0x151B7, size: 0x8, addend: 0x0, symName: __ZNSt3__118__unwrap_iter_implIPNS_12basic_stringIcNS_11char_traitsIcEENS_9allocatorIcEEEELb1EE8__rewrapB8ue170006ES7_S7_, symObjAddr: 0x2B18, symBinAddr: 0x100006BB4, symSize: 0x58 }
  - { offsetInCU: 0xB777, offset: 0x151E7, size: 0x8, addend: 0x0, symName: __ZNSt3__16vectorINS_12basic_stringIcNS_11char_traitsIcEENS_9allocatorIcEEEENS4_IS6_EEE21_ConstructTransactionD2B8ue170006Ev, symObjAddr: 0x2B70, symBinAddr: 0x100006C0C, symSize: 0x20 }
  - { offsetInCU: 0xB7C2, offset: 0x15232, size: 0x8, addend: 0x0, symName: __ZNKSt3__111__copy_loopINS_17_ClassicAlgPolicyEEclB8ue170006IPKNS_12basic_stringIcNS_11char_traitsIcEENS_9allocatorIcEEEESB_PS9_EENS_4pairIT_T1_EESE_T0_SF_, symObjAddr: 0x2C88, symBinAddr: 0x100006D24, symSize: 0x88 }
  - { offsetInCU: 0xB830, offset: 0x152A0, size: 0x8, addend: 0x0, symName: __ZNSt3__14pairIPKNS_12basic_stringIcNS_11char_traitsIcEENS_9allocatorIcEEEEPS6_EC1B8ue170006IS8_S9_LPv0EEEOT_OT0_, symObjAddr: 0x2D74, symBinAddr: 0x100006E10, symSize: 0x3C }
  - { offsetInCU: 0xB88D, offset: 0x152FD, size: 0x8, addend: 0x0, symName: __ZNSt3__14pairIPKNS_12basic_stringIcNS_11char_traitsIcEENS_9allocatorIcEEEEPS6_EC2B8ue170006IS8_S9_LPv0EEEOT_OT0_, symObjAddr: 0x2DB0, symBinAddr: 0x100006E4C, symSize: 0x34 }
  - { offsetInCU: 0xB8EA, offset: 0x1535A, size: 0x8, addend: 0x0, symName: __ZNSt3__118__unwrap_iter_implIPKNS_12basic_stringIcNS_11char_traitsIcEENS_9allocatorIcEEEELb1EE8__rewrapB8ue170006ES8_S8_, symObjAddr: 0x2E20, symBinAddr: 0x100006EBC, symSize: 0x58 }
  - { offsetInCU: 0xB91A, offset: 0x1538A, size: 0x8, addend: 0x0, symName: __ZNKSt3__16vectorINS_12basic_stringIcNS_11char_traitsIcEENS_9allocatorIcEEEENS4_IS6_EEE17__annotate_shrinkB8ue170006Em, symObjAddr: 0x2E78, symBinAddr: 0x100006F14, symSize: 0xD0 }
  - { offsetInCU: 0xB94D, offset: 0x153BD, size: 0x8, addend: 0x0, symName: __ZNSt3__16vectorINS_12basic_stringIcNS_11char_traitsIcEENS_9allocatorIcEEEENS4_IS6_EEE5clearB8ue170006Ev, symObjAddr: 0x2F48, symBinAddr: 0x100006FE4, symSize: 0x44 }
  - { offsetInCU: 0xB980, offset: 0x153F0, size: 0x8, addend: 0x0, symName: __ZNSt3__16vectorINS_12basic_stringIcNS_11char_traitsIcEENS_9allocatorIcEEEENS4_IS6_EEE9__end_capB8ue170006Ev, symObjAddr: 0x2F8C, symBinAddr: 0x100007028, symSize: 0x28 }
  - { offsetInCU: 0xB9A4, offset: 0x15414, size: 0x8, addend: 0x0, symName: __ZNSt3__117__compressed_pairIPNS_12basic_stringIcNS_11char_traitsIcEENS_9allocatorIcEEEENS4_IS6_EEE5firstB8ue170006Ev, symObjAddr: 0x2FB4, symBinAddr: 0x100007050, symSize: 0x24 }
  - { offsetInCU: 0xB9C8, offset: 0x15438, size: 0x8, addend: 0x0, symName: __ZNSt3__122__compressed_pair_elemIPNS_12basic_stringIcNS_11char_traitsIcEENS_9allocatorIcEEEELi0ELb0EE5__getB8ue170006Ev, symObjAddr: 0x2FD8, symBinAddr: 0x100007074, symSize: 0x14 }
  - { offsetInCU: 0xB9EC, offset: 0x1545C, size: 0x8, addend: 0x0, symName: __ZNKSt3__16vectorINS_12basic_stringIcNS_11char_traitsIcEENS_9allocatorIcEEEENS4_IS6_EEE8max_sizeEv, symObjAddr: 0x2FEC, symBinAddr: 0x100007088, symSize: 0x60 }
  - { offsetInCU: 0xBA12, offset: 0x15482, size: 0x8, addend: 0x0, symName: __ZNKSt3__16vectorINS_12basic_stringIcNS_11char_traitsIcEENS_9allocatorIcEEEENS4_IS6_EEE20__throw_length_errorB8ue170006Ev, symObjAddr: 0x304C, symBinAddr: 0x1000070E8, symSize: 0x1C }
  - { offsetInCU: 0xBA36, offset: 0x154A6, size: 0x8, addend: 0x0, symName: __ZNKSt3__16vectorINS_12basic_stringIcNS_11char_traitsIcEENS_9allocatorIcEEEENS4_IS6_EEE14__annotate_newB8ue170006Em, symObjAddr: 0x30A8, symBinAddr: 0x100007144, symSize: 0xC8 }
  - { offsetInCU: 0xBA73, offset: 0x154E3, size: 0x8, addend: 0x0, symName: __ZNSt3__116allocator_traitsINS_9allocatorINS_12basic_stringIcNS_11char_traitsIcEENS1_IcEEEEEEE8max_sizeB8ue170006IS7_vEEmRKS7_, symObjAddr: 0x319C, symBinAddr: 0x100007238, symSize: 0x24 }
  - { offsetInCU: 0xBAA0, offset: 0x15510, size: 0x8, addend: 0x0, symName: __ZNKSt3__16vectorINS_12basic_stringIcNS_11char_traitsIcEENS_9allocatorIcEEEENS4_IS6_EEE7__allocB8ue170006Ev, symObjAddr: 0x31C0, symBinAddr: 0x10000725C, symSize: 0x28 }
  - { offsetInCU: 0xBAD8, offset: 0x15548, size: 0x8, addend: 0x0, symName: __ZNKSt3__16__lessIvvEclB8ue170006ImmEEbRKT_RKT0_, symObjAddr: 0x323C, symBinAddr: 0x1000072D8, symSize: 0x34 }
  - { offsetInCU: 0xBB2A, offset: 0x1559A, size: 0x8, addend: 0x0, symName: __ZNKSt3__19allocatorINS_12basic_stringIcNS_11char_traitsIcEENS0_IcEEEEE8max_sizeB8ue170006Ev, symObjAddr: 0x3270, symBinAddr: 0x10000730C, symSize: 0x18 }
  - { offsetInCU: 0xBB4E, offset: 0x155BE, size: 0x8, addend: 0x0, symName: __ZNKSt3__117__compressed_pairIPNS_12basic_stringIcNS_11char_traitsIcEENS_9allocatorIcEEEENS4_IS6_EEE6secondB8ue170006Ev, symObjAddr: 0x3288, symBinAddr: 0x100007324, symSize: 0x24 }
  - { offsetInCU: 0xBB72, offset: 0x155E2, size: 0x8, addend: 0x0, symName: __ZNKSt3__122__compressed_pair_elemINS_9allocatorINS_12basic_stringIcNS_11char_traitsIcEENS1_IcEEEEEELi1ELb1EE5__getB8ue170006Ev, symObjAddr: 0x32AC, symBinAddr: 0x100007348, symSize: 0x14 }
  - { offsetInCU: 0xBB96, offset: 0x15606, size: 0x8, addend: 0x0, symName: __ZNSt12length_errorC1B8ue170006EPKc, symObjAddr: 0x3324, symBinAddr: 0x1000073C0, symSize: 0x34 }
  - { offsetInCU: 0xBBCC, offset: 0x1563C, size: 0x8, addend: 0x0, symName: __ZNSt12length_errorC2B8ue170006EPKc, symObjAddr: 0x3358, symBinAddr: 0x1000073F4, symSize: 0x4C }
  - { offsetInCU: 0xBC02, offset: 0x15672, size: 0x8, addend: 0x0, symName: __ZNSt3__19allocatorINS_12basic_stringIcNS_11char_traitsIcEENS0_IcEEEEE8allocateB8ue170006Em, symObjAddr: 0x33A4, symBinAddr: 0x100007440, symSize: 0x5C }
  - { offsetInCU: 0xBC52, offset: 0x156C2, size: 0x8, addend: 0x0, symName: __ZNKSt3__113basic_ostreamIcNS_11char_traitsIcEEE6sentrycvbB8ue170006Ev, symObjAddr: 0x3714, symBinAddr: 0x1000077B0, symSize: 0x1C }
  - { offsetInCU: 0xBC76, offset: 0x156E6, size: 0x8, addend: 0x0, symName: __ZNSt3__119ostreambuf_iteratorIcNS_11char_traitsIcEEEC1B8ue170006ERNS_13basic_ostreamIcS2_EE, symObjAddr: 0x3970, symBinAddr: 0x100007A0C, symSize: 0x34 }
  - { offsetInCU: 0xBCAC, offset: 0x1571C, size: 0x8, addend: 0x0, symName: __ZNKSt3__18ios_base5flagsB8ue170006Ev, symObjAddr: 0x39A4, symBinAddr: 0x100007A40, symSize: 0x18 }
  - { offsetInCU: 0xBCD3, offset: 0x15743, size: 0x8, addend: 0x0, symName: __ZNKSt3__19basic_iosIcNS_11char_traitsIcEEE4fillB8ue170006Ev, symObjAddr: 0x39BC, symBinAddr: 0x100007A58, symSize: 0x64 }
  - { offsetInCU: 0xBCF9, offset: 0x15769, size: 0x8, addend: 0x0, symName: __ZNKSt3__119ostreambuf_iteratorIcNS_11char_traitsIcEEE6failedB8ue170006Ev, symObjAddr: 0x3A20, symBinAddr: 0x100007ABC, symSize: 0x24 }
  - { offsetInCU: 0xBD1D, offset: 0x1578D, size: 0x8, addend: 0x0, symName: __ZNSt3__19basic_iosIcNS_11char_traitsIcEEE8setstateB8ue170006Ej, symObjAddr: 0x3A44, symBinAddr: 0x100007AE0, symSize: 0x2C }
  - { offsetInCU: 0xBD50, offset: 0x157C0, size: 0x8, addend: 0x0, symName: __ZNKSt3__18ios_base5widthB8ue170006Ev, symObjAddr: 0x3A70, symBinAddr: 0x100007B0C, symSize: 0x18 }
  - { offsetInCU: 0xBD77, offset: 0x157E7, size: 0x8, addend: 0x0, symName: __ZNSt3__115basic_streambufIcNS_11char_traitsIcEEE5sputnB8ue170006EPKcl, symObjAddr: 0x3A88, symBinAddr: 0x100007B24, symSize: 0x3C }
  - { offsetInCU: 0xBDB7, offset: 0x15827, size: 0x8, addend: 0x0, symName: __ZNSt3__112basic_stringIcNS_11char_traitsIcEENS_9allocatorIcEEEC1B8ue170006Emc, symObjAddr: 0x3AC4, symBinAddr: 0x100007B60, symSize: 0x3C }
  - { offsetInCU: 0xBDFD, offset: 0x1586D, size: 0x8, addend: 0x0, symName: __ZNKSt3__112basic_stringIcNS_11char_traitsIcEENS_9allocatorIcEEE4dataB8ue170006Ev, symObjAddr: 0x3B00, symBinAddr: 0x100007B9C, symSize: 0x28 }
  - { offsetInCU: 0xBE21, offset: 0x15891, size: 0x8, addend: 0x0, symName: __ZNSt3__18ios_base5widthB8ue170006El, symObjAddr: 0x3B28, symBinAddr: 0x100007BC4, symSize: 0x2C }
  - { offsetInCU: 0xBE66, offset: 0x158D6, size: 0x8, addend: 0x0, symName: __ZNSt3__112basic_stringIcNS_11char_traitsIcEENS_9allocatorIcEEEC2B8ue170006Emc, symObjAddr: 0x3B54, symBinAddr: 0x100007BF0, symSize: 0x4C }
  - { offsetInCU: 0xBEAC, offset: 0x1591C, size: 0x8, addend: 0x0, symName: __ZNKSt3__112basic_stringIcNS_11char_traitsIcEENS_9allocatorIcEEE13__get_pointerB8ue170006Ev, symObjAddr: 0x3BB4, symBinAddr: 0x100007C50, symSize: 0x54 }
  - { offsetInCU: 0xBED0, offset: 0x15940, size: 0x8, addend: 0x0, symName: __ZNKSt3__112basic_stringIcNS_11char_traitsIcEENS_9allocatorIcEEE9__is_longB8ue170006Ev, symObjAddr: 0x3C08, symBinAddr: 0x100007CA4, symSize: 0x38 }
  - { offsetInCU: 0xBEF4, offset: 0x15964, size: 0x8, addend: 0x0, symName: __ZNKSt3__112basic_stringIcNS_11char_traitsIcEENS_9allocatorIcEEE18__get_long_pointerB8ue170006Ev, symObjAddr: 0x3C40, symBinAddr: 0x100007CDC, symSize: 0x28 }
  - { offsetInCU: 0xBF18, offset: 0x15988, size: 0x8, addend: 0x0, symName: __ZNKSt3__112basic_stringIcNS_11char_traitsIcEENS_9allocatorIcEEE19__get_short_pointerB8ue170006Ev, symObjAddr: 0x3C68, symBinAddr: 0x100007D04, symSize: 0x28 }
  - { offsetInCU: 0xBF3C, offset: 0x159AC, size: 0x8, addend: 0x0, symName: __ZNKSt3__117__compressed_pairINS_12basic_stringIcNS_11char_traitsIcEENS_9allocatorIcEEE5__repES5_E5firstB8ue170006Ev, symObjAddr: 0x3C90, symBinAddr: 0x100007D2C, symSize: 0x24 }
  - { offsetInCU: 0xBF60, offset: 0x159D0, size: 0x8, addend: 0x0, symName: __ZNKSt3__122__compressed_pair_elemINS_12basic_stringIcNS_11char_traitsIcEENS_9allocatorIcEEE5__repELi0ELb0EE5__getB8ue170006Ev, symObjAddr: 0x3CB4, symBinAddr: 0x100007D50, symSize: 0x14 }
  - { offsetInCU: 0xBF84, offset: 0x159F4, size: 0x8, addend: 0x0, symName: __ZNSt3__114pointer_traitsIPKcE10pointer_toB8ue170006ERS1_, symObjAddr: 0x3CC8, symBinAddr: 0x100007D64, symSize: 0x14 }
  - { offsetInCU: 0xBFA7, offset: 0x15A17, size: 0x8, addend: 0x0, symName: __ZNSt3__119ostreambuf_iteratorIcNS_11char_traitsIcEEEC2B8ue170006ERNS_13basic_ostreamIcS2_EE, symObjAddr: 0x3CDC, symBinAddr: 0x100007D78, symSize: 0x54 }
  - { offsetInCU: 0xBFDD, offset: 0x15A4D, size: 0x8, addend: 0x0, symName: __ZNKSt3__19basic_iosIcNS_11char_traitsIcEEE5rdbufB8ue170006Ev, symObjAddr: 0x3D30, symBinAddr: 0x100007DCC, symSize: 0x24 }
  - { offsetInCU: 0xC003, offset: 0x15A73, size: 0x8, addend: 0x0, symName: __ZNKSt3__18ios_base5rdbufB8ue170006Ev, symObjAddr: 0x3D54, symBinAddr: 0x100007DF0, symSize: 0x18 }
  - { offsetInCU: 0xC027, offset: 0x15A97, size: 0x8, addend: 0x0, symName: __ZNSt3__111char_traitsIcE11eq_int_typeB8ue170006Eii, symObjAddr: 0x3D6C, symBinAddr: 0x100007E08, symSize: 0x28 }
  - { offsetInCU: 0xC05A, offset: 0x15ACA, size: 0x8, addend: 0x0, symName: __ZNSt3__111char_traitsIcE3eofB8ue170006Ev, symObjAddr: 0x3D94, symBinAddr: 0x100007E30, symSize: 0x8 }
  - { offsetInCU: 0xC06E, offset: 0x15ADE, size: 0x8, addend: 0x0, symName: __ZNKSt3__19basic_iosIcNS_11char_traitsIcEEE5widenB8ue170006Ec, symObjAddr: 0x3D9C, symBinAddr: 0x100007E38, symSize: 0x84 }
  - { offsetInCU: 0xC0DA, offset: 0x15B4A, size: 0x8, addend: 0x0, symName: __ZNKSt3__15ctypeIcE5widenB8ue170006Ec, symObjAddr: 0x3E4C, symBinAddr: 0x100007EE8, symSize: 0x38 }
  - { offsetInCU: 0xC10D, offset: 0x15B7D, size: 0x8, addend: 0x0, symName: __ZNSt3__18ios_base8setstateB8ue170006Ej, symObjAddr: 0x3E84, symBinAddr: 0x100007F20, symSize: 0x34 }
  - { offsetInCU: 0xC142, offset: 0x15BB2, size: 0x8, addend: 0x0, symName: __ZNKSt3__112basic_stringIcNS_11char_traitsIcEENS_9allocatorIcEEE4sizeB8ue170006Ev, symObjAddr: 0x3EB8, symBinAddr: 0x100007F54, symSize: 0x54 }
  - { offsetInCU: 0xC166, offset: 0x15BD6, size: 0x8, addend: 0x0, symName: __ZNKSt3__112basic_stringIcNS_11char_traitsIcEENS_9allocatorIcEEE15__get_long_sizeB8ue170006Ev, symObjAddr: 0x3F0C, symBinAddr: 0x100007FA8, symSize: 0x28 }
  - { offsetInCU: 0xC18A, offset: 0x15BFA, size: 0x8, addend: 0x0, symName: __ZNKSt3__112basic_stringIcNS_11char_traitsIcEENS_9allocatorIcEEE16__get_short_sizeB8ue170006Ev, symObjAddr: 0x3F34, symBinAddr: 0x100007FD0, symSize: 0x34 }
  - { offsetInCU: 0xC1AE, offset: 0x15C1E, size: 0x8, addend: 0x0, symName: __ZNKSt3__19basic_iosIcNS_11char_traitsIcEEE4failB8ue170006Ev, symObjAddr: 0x3F68, symBinAddr: 0x100008004, symSize: 0x28 }
  - { offsetInCU: 0xC1D2, offset: 0x15C42, size: 0x8, addend: 0x0, symName: __ZNKSt3__18ios_base4failB8ue170006Ev, symObjAddr: 0x3F90, symBinAddr: 0x10000802C, symSize: 0x28 }
  - { offsetInCU: 0xC1F9, offset: 0x15C69, size: 0x8, addend: 0x0, symName: __ZNKSt3__16vectorI11CandlestickNS_9allocatorIS1_EEE11__make_iterB8ue170006EPKS1_, symObjAddr: 0x3FB8, symBinAddr: 0x100008054, symSize: 0x30 }
  - { offsetInCU: 0xC22C, offset: 0x15C9C, size: 0x8, addend: 0x0, symName: __ZNSt3__111__wrap_iterIPK11CandlestickEC1B8ue170006ES3_, symObjAddr: 0x3FE8, symBinAddr: 0x100008084, symSize: 0x34 }
  - { offsetInCU: 0xC262, offset: 0x15CD2, size: 0x8, addend: 0x0, symName: __ZNSt3__111__wrap_iterIPK11CandlestickEC2B8ue170006ES3_, symObjAddr: 0x401C, symBinAddr: 0x1000080B8, symSize: 0x20 }
  - { offsetInCU: 0x8CD5, offset: 0x1EAC5, size: 0x8, addend: 0x0, symName: __ZNSt3__17getlineB8ue170006IcNS_11char_traitsIcEENS_9allocatorIcEEEERNS_13basic_istreamIT_T0_EES9_RNS_12basic_stringIS6_S7_T1_EE, symObjAddr: 0x480, symBinAddr: 0x10000852C, symSize: 0x5C }
  - { offsetInCU: 0x9159, offset: 0x1EF49, size: 0x8, addend: 0x0, symName: __ZNSt3__17getlineB8ue170006IcNS_11char_traitsIcEENS_9allocatorIcEEEERNS_13basic_istreamIT_T0_EES9_RNS_12basic_stringIS6_S7_T1_EES6_, symObjAddr: 0x644, symBinAddr: 0x1000086C4, symSize: 0x238 }
  - { offsetInCU: 0x922D, offset: 0x1F01D, size: 0x8, addend: 0x0, symName: __ZNSt3__1neB8ue170006IPNS_6vectorINS_12basic_stringIcNS_11char_traitsIcEENS_9allocatorIcEEEENS5_IS7_EEEEEEbRKNS_11__wrap_iterIT_EESF_, symObjAddr: 0xD00, symBinAddr: 0x100008D28, symSize: 0x34 }
  - { offsetInCU: 0x9270, offset: 0x1F060, size: 0x8, addend: 0x0, symName: __ZNSt3__1eqB8ue170006INS_9allocatorIcEEEEbRKNS_12basic_stringIcNS_11char_traitsIcEET_EES9_, symObjAddr: 0xD78, symBinAddr: 0x100008DA0, symSize: 0x148 }
  - { offsetInCU: 0x92E3, offset: 0x1F0D3, size: 0x8, addend: 0x0, symName: __ZNSt3__1eqB8ue170006IPNS_6vectorINS_12basic_stringIcNS_11char_traitsIcEENS_9allocatorIcEEEENS5_IS7_EEEEEEbRKNS_11__wrap_iterIT_EESF_, symObjAddr: 0x1090, symBinAddr: 0x1000090B8, symSize: 0x48 }
  - { offsetInCU: 0x9565, offset: 0x1F355, size: 0x8, addend: 0x0, symName: __ZNSt3__142__uninitialized_allocator_move_if_noexceptB8ue170006INS_9allocatorINS_12basic_stringIcNS_11char_traitsIcEENS1_IcEEEEEENS_16reverse_iteratorIPS6_EESA_SA_EET2_RT_T0_T1_SB_, symObjAddr: 0x38CC, symBinAddr: 0x10000A098, symSize: 0x12C }
  - { offsetInCU: 0x9605, offset: 0x1F3F5, size: 0x8, addend: 0x0, symName: __ZNSt3__14swapB8ue170006IPNS_12basic_stringIcNS_11char_traitsIcEENS_9allocatorIcEEEEEENS_9enable_ifIXaasr21is_move_constructibleIT_EE5valuesr18is_move_assignableIS9_EE5valueEvE4typeERS9_SC_, symObjAddr: 0x3A44, symBinAddr: 0x10000A1C4, symSize: 0x3C }
  - { offsetInCU: 0x9656, offset: 0x1F446, size: 0x8, addend: 0x0, symName: __ZNSt3__122__make_exception_guardB8ue170006INS_29_AllocatorDestroyRangeReverseINS_9allocatorINS_12basic_stringIcNS_11char_traitsIcEENS2_IcEEEEEENS_16reverse_iteratorIPS7_EEEEEENS_28__exception_guard_exceptionsIT_EESE_, symObjAddr: 0x3B48, symBinAddr: 0x10000A200, symSize: 0x4C }
  - { offsetInCU: 0x968C, offset: 0x1F47C, size: 0x8, addend: 0x0, symName: __ZNSt3__119__allocator_destroyB8ue170006INS_9allocatorINS_12basic_stringIcNS_11char_traitsIcEENS1_IcEEEEEENS_16reverse_iteratorINS8_IPS6_EEEESB_EEvRT_T0_T1_, symObjAddr: 0x3FB0, symBinAddr: 0x10000A558, symSize: 0x70 }
  - { offsetInCU: 0x96F1, offset: 0x1F4E1, size: 0x8, addend: 0x0, symName: __ZNSt3__1neB8ue170006INS_16reverse_iteratorIPNS_12basic_stringIcNS_11char_traitsIcEENS_9allocatorIcEEEEEES9_EEbRKNS1_IT_EERKNS1_IT0_EE, symObjAddr: 0x405C, symBinAddr: 0x10000A604, symSize: 0x60 }
  - { offsetInCU: 0x973D, offset: 0x1F52D, size: 0x8, addend: 0x0, symName: __ZNSt3__112__to_addressB8ue170006INS_16reverse_iteratorINS1_IPNS_12basic_stringIcNS_11char_traitsIcEENS_9allocatorIcEEEEEEEEvEEu7__decayIDTclsr19__to_address_helperIT_EE6__callclsr3stdE7declvalIRKSB_EEEEESD_, symObjAddr: 0x40BC, symBinAddr: 0x10000A664, symSize: 0x24 }
  - { offsetInCU: 0x979D, offset: 0x1F58D, size: 0x8, addend: 0x0, symName: __ZNSt3__122__make_exception_guardB8ue170006INS_6vectorINS_12basic_stringIcNS_11char_traitsIcEENS_9allocatorIcEEEENS5_IS7_EEE16__destroy_vectorEEENS_28__exception_guard_exceptionsIT_EESC_, symObjAddr: 0x492C, symBinAddr: 0x10000AEAC, symSize: 0x40 }
  - { offsetInCU: 0x97D2, offset: 0x1F5C2, size: 0x8, addend: 0x0, symName: __ZNSt3__130__uninitialized_allocator_copyB8ue170006INS_9allocatorINS_12basic_stringIcNS_11char_traitsIcEENS1_IcEEEEEEPS6_S8_S8_EET2_RT_T0_T1_S9_, symObjAddr: 0x4B4C, symBinAddr: 0x10000B018, symSize: 0x80 }
  - { offsetInCU: 0x986F, offset: 0x1F65F, size: 0x8, addend: 0x0, symName: __ZNSt3__114__unwrap_rangeB8ue170006IPNS_12basic_stringIcNS_11char_traitsIcEENS_9allocatorIcEEEES7_EENS_4pairIT0_S9_EET_SB_, symObjAddr: 0x4BCC, symBinAddr: 0x10000B098, symSize: 0x60 }
  - { offsetInCU: 0x98BB, offset: 0x1F6AB, size: 0x8, addend: 0x0, symName: __ZNSt3__135__uninitialized_allocator_copy_implB8ue170006INS_9allocatorINS_12basic_stringIcNS_11char_traitsIcEENS1_IcEEEEEEPS6_S8_S8_EET2_RT_T0_T1_S9_, symObjAddr: 0x4C2C, symBinAddr: 0x10000B0F8, symSize: 0xF4 }
  - { offsetInCU: 0x9959, offset: 0x1F749, size: 0x8, addend: 0x0, symName: __ZNSt3__19make_pairB8ue170006IPNS_12basic_stringIcNS_11char_traitsIcEENS_9allocatorIcEEEES7_EENS_4pairINS_18__unwrap_ref_decayIT_E4typeENS9_IT0_E4typeEEEOSA_OSD_, symObjAddr: 0x4D80, symBinAddr: 0x10000B1EC, symSize: 0x38 }
  - { offsetInCU: 0x9A7D, offset: 0x1F86D, size: 0x8, addend: 0x0, symName: __ZNSt3__119__allocate_at_leastB8ue170006INS_9allocatorINS_6vectorINS_12basic_stringIcNS_11char_traitsIcEENS1_IcEEEENS1_IS7_EEEEEEEENS_19__allocation_resultINS_16allocator_traitsIT_E7pointerEEERSD_m, symObjAddr: 0x5674, symBinAddr: 0x10000B7C8, symSize: 0x40 }
  - { offsetInCU: 0x9AC0, offset: 0x1F8B0, size: 0x8, addend: 0x0, symName: __ZNSt3__142__uninitialized_allocator_move_if_noexceptB8ue170006INS_9allocatorINS_6vectorINS_12basic_stringIcNS_11char_traitsIcEENS1_IcEEEENS1_IS7_EEEEEENS_16reverse_iteratorIPS9_EESD_SD_EET2_RT_T0_T1_SE_, symObjAddr: 0x582C, symBinAddr: 0x10000B980, symSize: 0x12C }
  - { offsetInCU: 0x9B60, offset: 0x1F950, size: 0x8, addend: 0x0, symName: __ZNSt3__14swapB8ue170006IPNS_6vectorINS_12basic_stringIcNS_11char_traitsIcEENS_9allocatorIcEEEENS5_IS7_EEEEEENS_9enable_ifIXaasr21is_move_constructibleIT_EE5valuesr18is_move_assignableISC_EE5valueEvE4typeERSC_SF_, symObjAddr: 0x59A4, symBinAddr: 0x10000BAF8, symSize: 0x3C }
  - { offsetInCU: 0x9BB1, offset: 0x1F9A1, size: 0x8, addend: 0x0, symName: __ZNSt3__122__make_exception_guardB8ue170006INS_29_AllocatorDestroyRangeReverseINS_9allocatorINS_6vectorINS_12basic_stringIcNS_11char_traitsIcEENS2_IcEEEENS2_IS8_EEEEEENS_16reverse_iteratorIPSA_EEEEEENS_28__exception_guard_exceptionsIT_EESH_, symObjAddr: 0x5AA8, symBinAddr: 0x10000BBFC, symSize: 0x4C }
  - { offsetInCU: 0x9BE7, offset: 0x1F9D7, size: 0x8, addend: 0x0, symName: __ZNSt3__1neB8ue170006IPNS_6vectorINS_12basic_stringIcNS_11char_traitsIcEENS_9allocatorIcEEEENS5_IS7_EEEESA_EEbRKNS_16reverse_iteratorIT_EERKNSB_IT0_EE, symObjAddr: 0x5B38, symBinAddr: 0x10000BC8C, symSize: 0x48 }
  - { offsetInCU: 0x9C33, offset: 0x1FA23, size: 0x8, addend: 0x0, symName: __ZNSt3__112__to_addressB8ue170006INS_16reverse_iteratorIPNS_6vectorINS_12basic_stringIcNS_11char_traitsIcEENS_9allocatorIcEEEENS6_IS8_EEEEEEvEEu7__decayIDTclsr19__to_address_helperIT_EE6__callclsr3stdE7declvalIRKSD_EEEEESF_, symObjAddr: 0x5BB4, symBinAddr: 0x10000BD08, symSize: 0x24 }
  - { offsetInCU: 0x9C93, offset: 0x1FA83, size: 0x8, addend: 0x0, symName: __ZNSt3__119__allocator_destroyB8ue170006INS_9allocatorINS_6vectorINS_12basic_stringIcNS_11char_traitsIcEENS1_IcEEEENS1_IS7_EEEEEENS_16reverse_iteratorINSB_IPS9_EEEESE_EEvRT_T0_T1_, symObjAddr: 0x5F8C, symBinAddr: 0x10000C0E0, symSize: 0x70 }
  - { offsetInCU: 0x9CF8, offset: 0x1FAE8, size: 0x8, addend: 0x0, symName: __ZNSt3__1neB8ue170006INS_16reverse_iteratorIPNS_6vectorINS_12basic_stringIcNS_11char_traitsIcEENS_9allocatorIcEEEENS6_IS8_EEEEEESC_EEbRKNS1_IT_EERKNS1_IT0_EE, symObjAddr: 0x6038, symBinAddr: 0x10000C18C, symSize: 0x60 }
  - { offsetInCU: 0x9D44, offset: 0x1FB34, size: 0x8, addend: 0x0, symName: __ZNSt3__112__to_addressB8ue170006INS_16reverse_iteratorINS1_IPNS_6vectorINS_12basic_stringIcNS_11char_traitsIcEENS_9allocatorIcEEEENS6_IS8_EEEEEEEEvEEu7__decayIDTclsr19__to_address_helperIT_EE6__callclsr3stdE7declvalIRKSE_EEEEESG_, symObjAddr: 0x6098, symBinAddr: 0x10000C1EC, symSize: 0x24 }
  - { offsetInCU: 0xA37A, offset: 0x2016A, size: 0x8, addend: 0x0, symName: __ZNSt3__16vectorINS_12basic_stringIcNS_11char_traitsIcEENS_9allocatorIcEEEENS4_IS6_EEE26__swap_out_circular_bufferERNS_14__split_bufferIS6_RS7_EE, symObjAddr: 0x30F0, symBinAddr: 0x100009D24, symSize: 0x110 }
  - { offsetInCU: 0xA451, offset: 0x20241, size: 0x8, addend: 0x0, symName: __ZNSt3__16vectorINS0_INS_12basic_stringIcNS_11char_traitsIcEENS_9allocatorIcEEEENS4_IS6_EEEENS4_IS8_EEE26__swap_out_circular_bufferERNS_14__split_bufferIS8_RS9_EE, symObjAddr: 0x5304, symBinAddr: 0x10000B458, symSize: 0x110 }
  - { offsetInCU: 0xC307, offset: 0x220F7, size: 0x8, addend: 0x0, symName: __ZN9CSVReaderC2ERKNSt3__112basic_stringIcNS0_11char_traitsIcEENS0_9allocatorIcEEEE, symObjAddr: 0x0, symBinAddr: 0x1000080D8, symSize: 0x34 }
  - { offsetInCU: 0xC33F, offset: 0x2212F, size: 0x8, addend: 0x0, symName: __ZN9CSVReaderC1ERKNSt3__112basic_stringIcNS0_11char_traitsIcEENS0_9allocatorIcEEEE, symObjAddr: 0x34, symBinAddr: 0x10000810C, symSize: 0x34 }
  - { offsetInCU: 0xC377, offset: 0x22167, size: 0x8, addend: 0x0, symName: __ZN9CSVReader7readCSVEv, symObjAddr: 0x68, symBinAddr: 0x100008140, symSize: 0x254 }
  - { offsetInCU: 0xC3FF, offset: 0x221EF, size: 0x8, addend: 0x0, symName: __ZNSt3__16vectorINS0_INS_12basic_stringIcNS_11char_traitsIcEENS_9allocatorIcEEEENS4_IS6_EEEENS4_IS8_EEEC1B8ue170006Ev, symObjAddr: 0x2BC, symBinAddr: 0x100008394, symSize: 0x2C }
  - { offsetInCU: 0xC5AA, offset: 0x2239A, size: 0x8, addend: 0x0, symName: __ZNSt3__114basic_ifstreamIcNS_11char_traitsIcEEEC1ERKNS_12basic_stringIcS2_NS_9allocatorIcEEEEj, symObjAddr: 0x2E8, symBinAddr: 0x1000083C0, symSize: 0x16C }
  - { offsetInCU: 0xC5F3, offset: 0x223E3, size: 0x8, addend: 0x0, symName: __ZNKSt3__19basic_iosIcNS_11char_traitsIcEEEcvbB8ue170006Ev, symObjAddr: 0x4DC, symBinAddr: 0x100008588, symSize: 0x2C }
  - { offsetInCU: 0xC676, offset: 0x22466, size: 0x8, addend: 0x0, symName: __ZNSt3__118basic_stringstreamIcNS_11char_traitsIcEENS_9allocatorIcEEEC1B8ue170006ERKNS_12basic_stringIcS2_S4_EEj, symObjAddr: 0x534, symBinAddr: 0x1000085B4, symSize: 0x110 }
  - { offsetInCU: 0xC6BB, offset: 0x224AB, size: 0x8, addend: 0x0, symName: __ZNSt3__16vectorINS_12basic_stringIcNS_11char_traitsIcEENS_9allocatorIcEEEENS4_IS6_EEE9push_backB8ue170006ERKS6_, symObjAddr: 0x87C, symBinAddr: 0x1000088FC, symSize: 0x6C }
  - { offsetInCU: 0xC6F0, offset: 0x224E0, size: 0x8, addend: 0x0, symName: __ZNSt3__16vectorINS0_INS_12basic_stringIcNS_11char_traitsIcEENS_9allocatorIcEEEENS4_IS6_EEEENS4_IS8_EEE9push_backB8ue170006ERKS8_, symObjAddr: 0x8E8, symBinAddr: 0x100008968, symSize: 0x6C }
  - { offsetInCU: 0xC72B, offset: 0x2251B, size: 0x8, addend: 0x0, symName: __ZNSt3__118basic_stringstreamIcNS_11char_traitsIcEENS_9allocatorIcEEED1Ev, symObjAddr: 0x954, symBinAddr: 0x1000089D4, symSize: 0x40 }
  - { offsetInCU: 0xC756, offset: 0x22546, size: 0x8, addend: 0x0, symName: __ZNSt3__114basic_ifstreamIcNS_11char_traitsIcEEE5closeEv, symObjAddr: 0x9C0, symBinAddr: 0x100008A14, symSize: 0x58 }
  - { offsetInCU: 0xC782, offset: 0x22572, size: 0x8, addend: 0x0, symName: __ZNSt3__114basic_ifstreamIcNS_11char_traitsIcEEED1Ev, symObjAddr: 0xA18, symBinAddr: 0x100008A6C, symSize: 0x40 }
  - { offsetInCU: 0xC7AE, offset: 0x2259E, size: 0x8, addend: 0x0, symName: __ZN9CSVReader10filterDataERKNSt3__112basic_stringIcNS0_11char_traitsIcEENS0_9allocatorIcEEEEiii, symObjAddr: 0xA84, symBinAddr: 0x100008AAC, symSize: 0x21C }
  - { offsetInCU: 0xC899, offset: 0x22689, size: 0x8, addend: 0x0, symName: __ZNSt3__16vectorINS0_INS_12basic_stringIcNS_11char_traitsIcEENS_9allocatorIcEEEENS4_IS6_EEEENS4_IS8_EEE5beginB8ue170006Ev, symObjAddr: 0xCA0, symBinAddr: 0x100008CC8, symSize: 0x30 }
  - { offsetInCU: 0xC8BF, offset: 0x226AF, size: 0x8, addend: 0x0, symName: __ZNSt3__16vectorINS0_INS_12basic_stringIcNS_11char_traitsIcEENS_9allocatorIcEEEENS4_IS6_EEEENS4_IS8_EEE3endB8ue170006Ev, symObjAddr: 0xCD0, symBinAddr: 0x100008CF8, symSize: 0x30 }
  - { offsetInCU: 0xC8E6, offset: 0x226D6, size: 0x8, addend: 0x0, symName: __ZNKSt3__111__wrap_iterIPNS_6vectorINS_12basic_stringIcNS_11char_traitsIcEENS_9allocatorIcEEEENS5_IS7_EEEEEdeB8ue170006Ev, symObjAddr: 0xD34, symBinAddr: 0x100008D5C, symSize: 0x18 }
  - { offsetInCU: 0xC90A, offset: 0x226FA, size: 0x8, addend: 0x0, symName: __ZNKSt3__16vectorINS_12basic_stringIcNS_11char_traitsIcEENS_9allocatorIcEEEENS4_IS6_EEEixB8ue170006Em, symObjAddr: 0xD4C, symBinAddr: 0x100008D74, symSize: 0x2C }
  - { offsetInCU: 0xC940, offset: 0x22730, size: 0x8, addend: 0x0, symName: __ZNSt3__111__wrap_iterIPNS_6vectorINS_12basic_stringIcNS_11char_traitsIcEENS_9allocatorIcEEEENS5_IS7_EEEEEppB8ue170006Ev, symObjAddr: 0xEC0, symBinAddr: 0x100008EE8, symSize: 0x20 }
  - { offsetInCU: 0xC964, offset: 0x22754, size: 0x8, addend: 0x0, symName: __ZNSt3__118basic_stringstreamIcNS_11char_traitsIcEENS_9allocatorIcEEED2Ev, symObjAddr: 0xEE0, symBinAddr: 0x100008F08, symSize: 0x6C }
  - { offsetInCU: 0xC99C, offset: 0x2278C, size: 0x8, addend: 0x0, symName: __ZThn16_NSt3__118basic_stringstreamIcNS_11char_traitsIcEENS_9allocatorIcEEED1Ev, symObjAddr: 0xF4C, symBinAddr: 0x100008F74, symSize: 0x1C }
  - { offsetInCU: 0xC9B3, offset: 0x227A3, size: 0x8, addend: 0x0, symName: __ZTv0_n24_NSt3__118basic_stringstreamIcNS_11char_traitsIcEENS_9allocatorIcEEED1Ev, symObjAddr: 0xF68, symBinAddr: 0x100008F90, symSize: 0x28 }
  - { offsetInCU: 0xC9CF, offset: 0x227BF, size: 0x8, addend: 0x0, symName: __ZNSt3__115basic_stringbufIcNS_11char_traitsIcEENS_9allocatorIcEEED1Ev, symObjAddr: 0xF90, symBinAddr: 0x100008FB8, symSize: 0x2C }
  - { offsetInCU: 0xC9FB, offset: 0x227EB, size: 0x8, addend: 0x0, symName: __ZNSt3__115basic_stringbufIcNS_11char_traitsIcEENS_9allocatorIcEEED2Ev, symObjAddr: 0xFBC, symBinAddr: 0x100008FE4, symSize: 0x48 }
  - { offsetInCU: 0xCA27, offset: 0x22817, size: 0x8, addend: 0x0, symName: __ZNSt3__114basic_ifstreamIcNS_11char_traitsIcEEED2Ev, symObjAddr: 0x1004, symBinAddr: 0x10000902C, symSize: 0x64 }
  - { offsetInCU: 0xCA5F, offset: 0x2284F, size: 0x8, addend: 0x0, symName: __ZTv0_n24_NSt3__114basic_ifstreamIcNS_11char_traitsIcEEED1Ev, symObjAddr: 0x1068, symBinAddr: 0x100009090, symSize: 0x28 }
  - { offsetInCU: 0xCA76, offset: 0x22866, size: 0x8, addend: 0x0, symName: __ZNKSt3__111__wrap_iterIPNS_6vectorINS_12basic_stringIcNS_11char_traitsIcEENS_9allocatorIcEEEENS5_IS7_EEEEE4baseB8ue170006Ev, symObjAddr: 0x10D8, symBinAddr: 0x100009100, symSize: 0x18 }
  - { offsetInCU: 0xCA9F, offset: 0x2288F, size: 0x8, addend: 0x0, symName: __ZNSt3__16vectorINS0_INS_12basic_stringIcNS_11char_traitsIcEENS_9allocatorIcEEEENS4_IS6_EEEENS4_IS8_EEEC2B8ue170006Ev, symObjAddr: 0x12B4, symBinAddr: 0x100009118, symSize: 0x4C }
  - { offsetInCU: 0xCACC, offset: 0x228BC, size: 0x8, addend: 0x0, symName: __ZNSt3__117__compressed_pairIPNS_6vectorINS_12basic_stringIcNS_11char_traitsIcEENS_9allocatorIcEEEENS5_IS7_EEEENS5_IS9_EEEC1B8ue170006IDnNS_18__default_init_tagEEEOT_OT0_, symObjAddr: 0x1300, symBinAddr: 0x100009164, symSize: 0x3C }
  - { offsetInCU: 0xCB22, offset: 0x22912, size: 0x8, addend: 0x0, symName: __ZNSt3__117__compressed_pairIPNS_6vectorINS_12basic_stringIcNS_11char_traitsIcEENS_9allocatorIcEEEENS5_IS7_EEEENS5_IS9_EEEC2B8ue170006IDnNS_18__default_init_tagEEEOT_OT0_, symObjAddr: 0x133C, symBinAddr: 0x1000091A0, symSize: 0x40 }
  - { offsetInCU: 0xCB78, offset: 0x22968, size: 0x8, addend: 0x0, symName: __ZNSt3__122__compressed_pair_elemIPNS_6vectorINS_12basic_stringIcNS_11char_traitsIcEENS_9allocatorIcEEEENS5_IS7_EEEELi0ELb0EEC2B8ue170006IDnvEEOT_, symObjAddr: 0x137C, symBinAddr: 0x1000091E0, symSize: 0x1C }
  - { offsetInCU: 0xCBB8, offset: 0x229A8, size: 0x8, addend: 0x0, symName: __ZNSt3__122__compressed_pair_elemINS_9allocatorINS_6vectorINS_12basic_stringIcNS_11char_traitsIcEENS1_IcEEEENS1_IS7_EEEEEELi1ELb1EEC2B8ue170006ENS_18__default_init_tagE, symObjAddr: 0x1398, symBinAddr: 0x1000091FC, symSize: 0x2C }
  - { offsetInCU: 0xCBEA, offset: 0x229DA, size: 0x8, addend: 0x0, symName: __ZNSt3__19allocatorINS_6vectorINS_12basic_stringIcNS_11char_traitsIcEENS0_IcEEEENS0_IS6_EEEEEC2B8ue170006Ev, symObjAddr: 0x13C4, symBinAddr: 0x100009228, symSize: 0x2C }
  - { offsetInCU: 0xCC12, offset: 0x22A02, size: 0x8, addend: 0x0, symName: __ZNSt3__116__non_trivial_ifILb1ENS_9allocatorINS_6vectorINS_12basic_stringIcNS_11char_traitsIcEENS1_IcEEEENS1_IS7_EEEEEEEC2B8ue170006Ev, symObjAddr: 0x13F0, symBinAddr: 0x100009254, symSize: 0x14 }
  - { offsetInCU: 0xCC3A, offset: 0x22A2A, size: 0x8, addend: 0x0, symName: __ZNSt3__19basic_iosIcNS_11char_traitsIcEEEC2B8ue170006Ev, symObjAddr: 0x1980, symBinAddr: 0x100009268, symSize: 0x44 }
  - { offsetInCU: 0xCC62, offset: 0x22A52, size: 0x8, addend: 0x0, symName: __ZNSt3__113basic_istreamIcNS_11char_traitsIcEEEC2B8ue170006EPNS_15basic_streambufIcS2_EE, symObjAddr: 0x19C4, symBinAddr: 0x1000092AC, symSize: 0x64 }
  - { offsetInCU: 0xCCA3, offset: 0x22A93, size: 0x8, addend: 0x0, symName: __ZNSt3__113basic_filebufIcNS_11char_traitsIcEEE4openERKNS_12basic_stringIcS2_NS_9allocatorIcEEEEj, symObjAddr: 0x1A28, symBinAddr: 0x100009310, symSize: 0x44 }
  - { offsetInCU: 0xCCE6, offset: 0x22AD6, size: 0x8, addend: 0x0, symName: __ZNSt3__18ios_baseC2B8ue170006Ev, symObjAddr: 0x1A98, symBinAddr: 0x100009354, symSize: 0x24 }
  - { offsetInCU: 0xCD0D, offset: 0x22AFD, size: 0x8, addend: 0x0, symName: __ZNSt3__19basic_iosIcNS_11char_traitsIcEEE4initB8ue170006EPNS_15basic_streambufIcS2_EE, symObjAddr: 0x1ABC, symBinAddr: 0x100009378, symSize: 0x44 }
  - { offsetInCU: 0xCD43, offset: 0x22B33, size: 0x8, addend: 0x0, symName: __ZNKSt3__112basic_stringIcNS_11char_traitsIcEENS_9allocatorIcEEE5c_strB8ue170006Ev, symObjAddr: 0x1B08, symBinAddr: 0x1000093BC, symSize: 0x24 }
  - { offsetInCU: 0xCD67, offset: 0x22B57, size: 0x8, addend: 0x0, symName: __ZNSt3__114basic_iostreamIcNS_11char_traitsIcEEEC2B8ue170006EPNS_15basic_streambufIcS2_EE, symObjAddr: 0x244C, symBinAddr: 0x1000093E0, symSize: 0xAC }
  - { offsetInCU: 0xCDAA, offset: 0x22B9A, size: 0x8, addend: 0x0, symName: __ZNSt3__115basic_stringbufIcNS_11char_traitsIcEENS_9allocatorIcEEEC1B8ue170006ERKNS_12basic_stringIcS2_S4_EEj, symObjAddr: 0x24F8, symBinAddr: 0x10000948C, symSize: 0x3C }
  - { offsetInCU: 0xCDF0, offset: 0x22BE0, size: 0x8, addend: 0x0, symName: __ZNSt3__113basic_ostreamIcNS_11char_traitsIcEEEC2B8ue170006Ev, symObjAddr: 0x2534, symBinAddr: 0x1000094C8, symSize: 0x34 }
  - { offsetInCU: 0xCE24, offset: 0x22C14, size: 0x8, addend: 0x0, symName: __ZNSt3__115basic_stringbufIcNS_11char_traitsIcEENS_9allocatorIcEEEC2B8ue170006ERKNS_12basic_stringIcS2_S4_EEj, symObjAddr: 0x2568, symBinAddr: 0x1000094FC, symSize: 0xB4 }
  - { offsetInCU: 0xCE6A, offset: 0x22C5A, size: 0x8, addend: 0x0, symName: __ZNKSt3__112basic_stringIcNS_11char_traitsIcEENS_9allocatorIcEEE13get_allocatorB8ue170006Ev, symObjAddr: 0x261C, symBinAddr: 0x1000095B0, symSize: 0x24 }
  - { offsetInCU: 0xCE8E, offset: 0x22C7E, size: 0x8, addend: 0x0, symName: __ZNSt3__112basic_stringIcNS_11char_traitsIcEENS_9allocatorIcEEEC1B8ue170006ERKS4_, symObjAddr: 0x2640, symBinAddr: 0x1000095D4, symSize: 0x34 }
  - { offsetInCU: 0xCEC5, offset: 0x22CB5, size: 0x8, addend: 0x0, symName: __ZNKSt3__112basic_stringIcNS_11char_traitsIcEENS_9allocatorIcEEE7__allocB8ue170006Ev, symObjAddr: 0x2674, symBinAddr: 0x100009608, symSize: 0x24 }
  - { offsetInCU: 0xCEE9, offset: 0x22CD9, size: 0x8, addend: 0x0, symName: __ZNKSt3__117__compressed_pairINS_12basic_stringIcNS_11char_traitsIcEENS_9allocatorIcEEE5__repES5_E6secondB8ue170006Ev, symObjAddr: 0x2698, symBinAddr: 0x10000962C, symSize: 0x24 }
  - { offsetInCU: 0xCF0D, offset: 0x22CFD, size: 0x8, addend: 0x0, symName: __ZNKSt3__122__compressed_pair_elemINS_9allocatorIcEELi1ELb1EE5__getB8ue170006Ev, symObjAddr: 0x26BC, symBinAddr: 0x100009650, symSize: 0x14 }
  - { offsetInCU: 0xCF31, offset: 0x22D21, size: 0x8, addend: 0x0, symName: __ZNSt3__112basic_stringIcNS_11char_traitsIcEENS_9allocatorIcEEEC2B8ue170006ERKS4_, symObjAddr: 0x26D0, symBinAddr: 0x100009664, symSize: 0x48 }
  - { offsetInCU: 0xCF68, offset: 0x22D58, size: 0x8, addend: 0x0, symName: __ZNSt3__117__compressed_pairINS_12basic_stringIcNS_11char_traitsIcEENS_9allocatorIcEEE5__repES5_EC1B8ue170006INS_18__default_init_tagERKS5_EEOT_OT0_, symObjAddr: 0x2718, symBinAddr: 0x1000096AC, symSize: 0x3C }
  - { offsetInCU: 0xCFBE, offset: 0x22DAE, size: 0x8, addend: 0x0, symName: __ZNSt3__117__compressed_pairINS_12basic_stringIcNS_11char_traitsIcEENS_9allocatorIcEEE5__repES5_EC2B8ue170006INS_18__default_init_tagERKS5_EEOT_OT0_, symObjAddr: 0x2754, symBinAddr: 0x1000096E8, symSize: 0x40 }
  - { offsetInCU: 0xD014, offset: 0x22E04, size: 0x8, addend: 0x0, symName: __ZNSt3__122__compressed_pair_elemINS_9allocatorIcEELi1ELb1EEC2B8ue170006IRKS2_vEEOT_, symObjAddr: 0x2794, symBinAddr: 0x100009728, symSize: 0x18 }
  - { offsetInCU: 0xD072, offset: 0x22E62, size: 0x8, addend: 0x0, symName: __ZNKSt3__113basic_istreamIcNS_11char_traitsIcEEE6sentrycvbB8ue170006Ev, symObjAddr: 0x27AC, symBinAddr: 0x100009740, symSize: 0x1C }
  - { offsetInCU: 0xD095, offset: 0x22E85, size: 0x8, addend: 0x0, symName: __ZNSt3__112basic_stringIcNS_11char_traitsIcEENS_9allocatorIcEEE5clearB8ue170006Ev, symObjAddr: 0x27C8, symBinAddr: 0x10000975C, symSize: 0x78 }
  - { offsetInCU: 0xD0BC, offset: 0x22EAC, size: 0x8, addend: 0x0, symName: __ZNSt3__115basic_streambufIcNS_11char_traitsIcEEE6sbumpcB8ue170006Ev, symObjAddr: 0x2864, symBinAddr: 0x1000097D4, symSize: 0x78 }
  - { offsetInCU: 0xD0E0, offset: 0x22ED0, size: 0x8, addend: 0x0, symName: __ZNSt3__111char_traitsIcE12to_char_typeB8ue170006Ei, symObjAddr: 0x2904, symBinAddr: 0x10000984C, symSize: 0x18 }
  - { offsetInCU: 0xD103, offset: 0x22EF3, size: 0x8, addend: 0x0, symName: __ZNSt3__111char_traitsIcE2eqEcc, symObjAddr: 0x291C, symBinAddr: 0x100009864, symSize: 0x28 }
  - { offsetInCU: 0xD134, offset: 0x22F24, size: 0x8, addend: 0x0, symName: __ZNKSt3__112basic_stringIcNS_11char_traitsIcEENS_9allocatorIcEEE8max_sizeB8ue170006Ev, symObjAddr: 0x2998, symBinAddr: 0x10000988C, symSize: 0xAC }
  - { offsetInCU: 0xD184, offset: 0x22F74, size: 0x8, addend: 0x0, symName: __ZNSt3__18ios_base18__setstate_nothrowB8ue170006Ej, symObjAddr: 0x2A44, symBinAddr: 0x100009938, symSize: 0x64 }
  - { offsetInCU: 0xD1B7, offset: 0x22FA7, size: 0x8, addend: 0x0, symName: __ZNKSt3__19basic_iosIcNS_11char_traitsIcEEE10exceptionsB8ue170006Ev, symObjAddr: 0x2AA8, symBinAddr: 0x10000999C, symSize: 0x24 }
  - { offsetInCU: 0xD1DB, offset: 0x22FCB, size: 0x8, addend: 0x0, symName: __ZNSt3__111char_traitsIcE6assignB8ue170006ERcRKc, symObjAddr: 0x2ACC, symBinAddr: 0x1000099C0, symSize: 0x24 }
  - { offsetInCU: 0xD20C, offset: 0x22FFC, size: 0x8, addend: 0x0, symName: __ZNSt3__112basic_stringIcNS_11char_traitsIcEENS_9allocatorIcEEE18__get_long_pointerB8ue170006Ev, symObjAddr: 0x2AF0, symBinAddr: 0x1000099E4, symSize: 0x28 }
  - { offsetInCU: 0xD230, offset: 0x23020, size: 0x8, addend: 0x0, symName: __ZNSt3__112basic_stringIcNS_11char_traitsIcEENS_9allocatorIcEEE15__set_long_sizeB8ue170006Em, symObjAddr: 0x2B18, symBinAddr: 0x100009A0C, symSize: 0x38 }
  - { offsetInCU: 0xD263, offset: 0x23053, size: 0x8, addend: 0x0, symName: __ZNSt3__112basic_stringIcNS_11char_traitsIcEENS_9allocatorIcEEE19__get_short_pointerB8ue170006Ev, symObjAddr: 0x2B50, symBinAddr: 0x100009A44, symSize: 0x28 }
  - { offsetInCU: 0xD287, offset: 0x23077, size: 0x8, addend: 0x0, symName: __ZNSt3__112basic_stringIcNS_11char_traitsIcEENS_9allocatorIcEEE16__set_short_sizeB8ue170006Em, symObjAddr: 0x2B78, symBinAddr: 0x100009A6C, symSize: 0x78 }
  - { offsetInCU: 0xD2BA, offset: 0x230AA, size: 0x8, addend: 0x0, symName: __ZNSt3__114pointer_traitsIPcE10pointer_toB8ue170006ERc, symObjAddr: 0x2BF0, symBinAddr: 0x100009AE4, symSize: 0x14 }
  - { offsetInCU: 0xD2DD, offset: 0x230CD, size: 0x8, addend: 0x0, symName: __ZNSt3__111char_traitsIcE11to_int_typeB8ue170006Ec, symObjAddr: 0x2C1C, symBinAddr: 0x100009AF8, symSize: 0x14 }
  - { offsetInCU: 0xD30B, offset: 0x230FB, size: 0x8, addend: 0x0, symName: __ZNSt3__116allocator_traitsINS_9allocatorIcEEE8max_sizeB8ue170006IS2_vEEmRKS2_, symObjAddr: 0x2C8C, symBinAddr: 0x100009B0C, symSize: 0x24 }
  - { offsetInCU: 0xD338, offset: 0x23128, size: 0x8, addend: 0x0, symName: __ZNSt3__114numeric_limitsImE3maxB8ue170006Ev, symObjAddr: 0x2CB0, symBinAddr: 0x100009B30, symSize: 0x14 }
  - { offsetInCU: 0xD34C, offset: 0x2313C, size: 0x8, addend: 0x0, symName: __ZNKSt3__19allocatorIcE8max_sizeB8ue170006Ev, symObjAddr: 0x2CC4, symBinAddr: 0x100009B44, symSize: 0x14 }
  - { offsetInCU: 0xD370, offset: 0x23160, size: 0x8, addend: 0x0, symName: __ZNSt3__123__libcpp_numeric_limitsImLb1EE3maxB8ue170006Ev, symObjAddr: 0x2CD8, symBinAddr: 0x100009B58, symSize: 0x8 }
  - { offsetInCU: 0xD384, offset: 0x23174, size: 0x8, addend: 0x0, symName: __ZNKSt3__18ios_base10exceptionsB8ue170006Ev, symObjAddr: 0x2CE0, symBinAddr: 0x100009B60, symSize: 0x18 }
  - { offsetInCU: 0xD3AB, offset: 0x2319B, size: 0x8, addend: 0x0, symName: __ZNSt3__16vectorINS_12basic_stringIcNS_11char_traitsIcEENS_9allocatorIcEEEENS4_IS6_EEE22__construct_one_at_endB8ue170006IJRKS6_EEEvDpOT_, symObjAddr: 0x2D20, symBinAddr: 0x100009B78, symSize: 0x90 }
  - { offsetInCU: 0xD3F7, offset: 0x231E7, size: 0x8, addend: 0x0, symName: __ZNSt3__16vectorINS_12basic_stringIcNS_11char_traitsIcEENS_9allocatorIcEEEENS4_IS6_EEE21__push_back_slow_pathIRKS6_EEvOT_, symObjAddr: 0x2DB0, symBinAddr: 0x100009C08, symSize: 0xD8 }
  - { offsetInCU: 0xD46D, offset: 0x2325D, size: 0x8, addend: 0x0, symName: __ZNSt3__114__split_bufferINS_12basic_stringIcNS_11char_traitsIcEENS_9allocatorIcEEEERNS4_IS6_EEEC1EmmS8_, symObjAddr: 0x30AC, symBinAddr: 0x100009CE0, symSize: 0x44 }
  - { offsetInCU: 0xD4C2, offset: 0x232B2, size: 0x8, addend: 0x0, symName: __ZNSt3__114__split_bufferINS_12basic_stringIcNS_11char_traitsIcEENS_9allocatorIcEEEERNS4_IS6_EEED1Ev, symObjAddr: 0x3200, symBinAddr: 0x100009E34, symSize: 0x2C }
  - { offsetInCU: 0xD4F7, offset: 0x232E7, size: 0x8, addend: 0x0, symName: __ZNSt3__114__split_bufferINS_12basic_stringIcNS_11char_traitsIcEENS_9allocatorIcEEEERNS4_IS6_EEEC2EmmS8_, symObjAddr: 0x3578, symBinAddr: 0x100009E60, symSize: 0xE0 }
  - { offsetInCU: 0xD569, offset: 0x23359, size: 0x8, addend: 0x0, symName: __ZNSt3__117__compressed_pairIPNS_12basic_stringIcNS_11char_traitsIcEENS_9allocatorIcEEEERNS4_IS6_EEEC1B8ue170006IDnS9_EEOT_OT0_, symObjAddr: 0x3658, symBinAddr: 0x100009F40, symSize: 0x3C }
  - { offsetInCU: 0xD5BF, offset: 0x233AF, size: 0x8, addend: 0x0, symName: __ZNSt3__114__split_bufferINS_12basic_stringIcNS_11char_traitsIcEENS_9allocatorIcEEEERNS4_IS6_EEE7__allocB8ue170006Ev, symObjAddr: 0x36D4, symBinAddr: 0x100009F7C, symSize: 0x28 }
  - { offsetInCU: 0xD5E3, offset: 0x233D3, size: 0x8, addend: 0x0, symName: __ZNSt3__114__split_bufferINS_12basic_stringIcNS_11char_traitsIcEENS_9allocatorIcEEEERNS4_IS6_EEE9__end_capB8ue170006Ev, symObjAddr: 0x36FC, symBinAddr: 0x100009FA4, symSize: 0x28 }
  - { offsetInCU: 0xD607, offset: 0x233F7, size: 0x8, addend: 0x0, symName: __ZNSt3__117__compressed_pairIPNS_12basic_stringIcNS_11char_traitsIcEENS_9allocatorIcEEEERNS4_IS6_EEEC2B8ue170006IDnS9_EEOT_OT0_, symObjAddr: 0x3724, symBinAddr: 0x100009FCC, symSize: 0x48 }
  - { offsetInCU: 0xD65D, offset: 0x2344D, size: 0x8, addend: 0x0, symName: __ZNSt3__122__compressed_pair_elemIRNS_9allocatorINS_12basic_stringIcNS_11char_traitsIcEENS1_IcEEEEEELi1ELb0EEC2B8ue170006IS8_vEEOT_, symObjAddr: 0x376C, symBinAddr: 0x10000A014, symSize: 0x20 }
  - { offsetInCU: 0xD69D, offset: 0x2348D, size: 0x8, addend: 0x0, symName: __ZNSt3__117__compressed_pairIPNS_12basic_stringIcNS_11char_traitsIcEENS_9allocatorIcEEEERNS4_IS6_EEE6secondB8ue170006Ev, symObjAddr: 0x3868, symBinAddr: 0x10000A034, symSize: 0x28 }
  - { offsetInCU: 0xD6C1, offset: 0x234B1, size: 0x8, addend: 0x0, symName: __ZNSt3__122__compressed_pair_elemIRNS_9allocatorINS_12basic_stringIcNS_11char_traitsIcEENS1_IcEEEEEELi1ELb0EE5__getB8ue170006Ev, symObjAddr: 0x3890, symBinAddr: 0x10000A05C, symSize: 0x18 }
  - { offsetInCU: 0xD6E5, offset: 0x234D5, size: 0x8, addend: 0x0, symName: __ZNSt3__117__compressed_pairIPNS_12basic_stringIcNS_11char_traitsIcEENS_9allocatorIcEEEERNS4_IS6_EEE5firstB8ue170006Ev, symObjAddr: 0x38A8, symBinAddr: 0x10000A074, symSize: 0x24 }
  - { offsetInCU: 0xD709, offset: 0x234F9, size: 0x8, addend: 0x0, symName: __ZNSt3__129_AllocatorDestroyRangeReverseINS_9allocatorINS_12basic_stringIcNS_11char_traitsIcEENS1_IcEEEEEENS_16reverse_iteratorIPS6_EEEC1B8ue170006ERS7_RSA_SD_, symObjAddr: 0x3B94, symBinAddr: 0x10000A24C, symSize: 0x44 }
  - { offsetInCU: 0xD763, offset: 0x23553, size: 0x8, addend: 0x0, symName: __ZNSt3__116allocator_traitsINS_9allocatorINS_12basic_stringIcNS_11char_traitsIcEENS1_IcEEEEEEE9constructB8ue170006IS6_JS6_EvEEvRS7_PT_DpOT0_, symObjAddr: 0x3C20, symBinAddr: 0x10000A290, symSize: 0x34 }
  - { offsetInCU: 0xD7B9, offset: 0x235A9, size: 0x8, addend: 0x0, symName: __ZNSt3__128__exception_guard_exceptionsINS_29_AllocatorDestroyRangeReverseINS_9allocatorINS_12basic_stringIcNS_11char_traitsIcEENS2_IcEEEEEENS_16reverse_iteratorIPS7_EEEEE10__completeB8ue170006Ev, symObjAddr: 0x3CC0, symBinAddr: 0x10000A2C4, symSize: 0x1C }
  - { offsetInCU: 0xD7DD, offset: 0x235CD, size: 0x8, addend: 0x0, symName: __ZNSt3__128__exception_guard_exceptionsINS_29_AllocatorDestroyRangeReverseINS_9allocatorINS_12basic_stringIcNS_11char_traitsIcEENS2_IcEEEEEENS_16reverse_iteratorIPS7_EEEEED1B8ue170006Ev, symObjAddr: 0x3CDC, symBinAddr: 0x10000A2E0, symSize: 0x2C }
  - { offsetInCU: 0xD805, offset: 0x235F5, size: 0x8, addend: 0x0, symName: __ZNSt3__128__exception_guard_exceptionsINS_29_AllocatorDestroyRangeReverseINS_9allocatorINS_12basic_stringIcNS_11char_traitsIcEENS2_IcEEEEEENS_16reverse_iteratorIPS7_EEEEEC1B8ue170006ESC_, symObjAddr: 0x3D08, symBinAddr: 0x10000A30C, symSize: 0x34 }
  - { offsetInCU: 0xD83C, offset: 0x2362C, size: 0x8, addend: 0x0, symName: __ZNSt3__128__exception_guard_exceptionsINS_29_AllocatorDestroyRangeReverseINS_9allocatorINS_12basic_stringIcNS_11char_traitsIcEENS2_IcEEEEEENS_16reverse_iteratorIPS7_EEEEEC2B8ue170006ESC_, symObjAddr: 0x3D3C, symBinAddr: 0x10000A340, symSize: 0x30 }
  - { offsetInCU: 0xD873, offset: 0x23663, size: 0x8, addend: 0x0, symName: __ZNSt3__129_AllocatorDestroyRangeReverseINS_9allocatorINS_12basic_stringIcNS_11char_traitsIcEENS1_IcEEEEEENS_16reverse_iteratorIPS6_EEEC2B8ue170006ERS7_RSA_SD_, symObjAddr: 0x3D6C, symBinAddr: 0x10000A370, symSize: 0x38 }
  - { offsetInCU: 0xD8C8, offset: 0x236B8, size: 0x8, addend: 0x0, symName: __ZNSt3__19allocatorINS_12basic_stringIcNS_11char_traitsIcEENS0_IcEEEEE9constructB8ue170006IS5_JS5_EEEvPT_DpOT0_, symObjAddr: 0x3DA4, symBinAddr: 0x10000A3A8, symSize: 0x30 }
  - { offsetInCU: 0xD91C, offset: 0x2370C, size: 0x8, addend: 0x0, symName: __ZNSt3__112basic_stringIcNS_11char_traitsIcEENS_9allocatorIcEEEC1B8ue170006EOS5_, symObjAddr: 0x3DD4, symBinAddr: 0x10000A3D8, symSize: 0x34 }
  - { offsetInCU: 0xD953, offset: 0x23743, size: 0x8, addend: 0x0, symName: __ZNSt3__112basic_stringIcNS_11char_traitsIcEENS_9allocatorIcEEEC2B8ue170006EOS5_, symObjAddr: 0x3E08, symBinAddr: 0x10000A40C, symSize: 0x48 }
  - { offsetInCU: 0xD98A, offset: 0x2377A, size: 0x8, addend: 0x0, symName: __ZNSt3__128__exception_guard_exceptionsINS_29_AllocatorDestroyRangeReverseINS_9allocatorINS_12basic_stringIcNS_11char_traitsIcEENS2_IcEEEEEENS_16reverse_iteratorIPS7_EEEEED2B8ue170006Ev, symObjAddr: 0x3EAC, symBinAddr: 0x10000A454, symSize: 0x50 }
  - { offsetInCU: 0xD9B2, offset: 0x237A2, size: 0x8, addend: 0x0, symName: __ZNKSt3__129_AllocatorDestroyRangeReverseINS_9allocatorINS_12basic_stringIcNS_11char_traitsIcEENS1_IcEEEEEENS_16reverse_iteratorIPS6_EEEclB8ue170006Ev, symObjAddr: 0x3EFC, symBinAddr: 0x10000A4A4, symSize: 0xB4 }
  - { offsetInCU: 0xD9D7, offset: 0x237C7, size: 0x8, addend: 0x0, symName: __ZNSt3__116reverse_iteratorINS0_IPNS_12basic_stringIcNS_11char_traitsIcEENS_9allocatorIcEEEEEEEC1B8ue170006ES8_, symObjAddr: 0x4020, symBinAddr: 0x10000A5C8, symSize: 0x3C }
  - { offsetInCU: 0xDA0D, offset: 0x237FD, size: 0x8, addend: 0x0, symName: __ZNSt3__116reverse_iteratorINS0_IPNS_12basic_stringIcNS_11char_traitsIcEENS_9allocatorIcEEEEEEEppB8ue170006Ev, symObjAddr: 0x40E0, symBinAddr: 0x10000A688, symSize: 0x30 }
  - { offsetInCU: 0xDA31, offset: 0x23821, size: 0x8, addend: 0x0, symName: __ZNKSt3__116reverse_iteratorINS0_IPNS_12basic_stringIcNS_11char_traitsIcEENS_9allocatorIcEEEEEEE4baseB8ue170006Ev, symObjAddr: 0x4110, symBinAddr: 0x10000A6B8, symSize: 0x24 }
  - { offsetInCU: 0xDA5A, offset: 0x2384A, size: 0x8, addend: 0x0, symName: __ZNSt3__119__to_address_helperINS_16reverse_iteratorINS1_IPNS_12basic_stringIcNS_11char_traitsIcEENS_9allocatorIcEEEEEEEEvE6__callB8ue170006ERKSA_, symObjAddr: 0x4134, symBinAddr: 0x10000A6DC, symSize: 0x38 }
  - { offsetInCU: 0xDA7C, offset: 0x2386C, size: 0x8, addend: 0x0, symName: __ZNKSt3__116reverse_iteratorINS0_IPNS_12basic_stringIcNS_11char_traitsIcEENS_9allocatorIcEEEEEEEptB8ue170006Ev, symObjAddr: 0x416C, symBinAddr: 0x10000A714, symSize: 0x24 }
  - { offsetInCU: 0xDAA0, offset: 0x23890, size: 0x8, addend: 0x0, symName: __ZNKSt3__116reverse_iteratorINS0_IPNS_12basic_stringIcNS_11char_traitsIcEENS_9allocatorIcEEEEEEEdeB8ue170006Ev, symObjAddr: 0x4190, symBinAddr: 0x10000A738, symSize: 0x34 }
  - { offsetInCU: 0xDAD2, offset: 0x238C2, size: 0x8, addend: 0x0, symName: __ZNSt3__116reverse_iteratorIPNS_12basic_stringIcNS_11char_traitsIcEENS_9allocatorIcEEEEEmmB8ue170006Ev, symObjAddr: 0x41C4, symBinAddr: 0x10000A76C, symSize: 0x20 }
  - { offsetInCU: 0xDAF6, offset: 0x238E6, size: 0x8, addend: 0x0, symName: __ZNSt3__116reverse_iteratorINS0_IPNS_12basic_stringIcNS_11char_traitsIcEENS_9allocatorIcEEEEEEEC2B8ue170006ES8_, symObjAddr: 0x41E4, symBinAddr: 0x10000A78C, symSize: 0x2C }
  - { offsetInCU: 0xDB2C, offset: 0x2391C, size: 0x8, addend: 0x0, symName: __ZNSt3__114__split_bufferINS_12basic_stringIcNS_11char_traitsIcEENS_9allocatorIcEEEERNS4_IS6_EEED2Ev, symObjAddr: 0x4238, symBinAddr: 0x10000A7B8, symSize: 0x8C }
  - { offsetInCU: 0xDB57, offset: 0x23947, size: 0x8, addend: 0x0, symName: __ZNSt3__114__split_bufferINS_12basic_stringIcNS_11char_traitsIcEENS_9allocatorIcEEEERNS4_IS6_EEE5clearB8ue170006Ev, symObjAddr: 0x42C4, symBinAddr: 0x10000A844, symSize: 0x28 }
  - { offsetInCU: 0xDB7B, offset: 0x2396B, size: 0x8, addend: 0x0, symName: __ZNKSt3__114__split_bufferINS_12basic_stringIcNS_11char_traitsIcEENS_9allocatorIcEEEERNS4_IS6_EEE8capacityB8ue170006Ev, symObjAddr: 0x42EC, symBinAddr: 0x10000A86C, symSize: 0x40 }
  - { offsetInCU: 0xDB9F, offset: 0x2398F, size: 0x8, addend: 0x0, symName: __ZNSt3__114__split_bufferINS_12basic_stringIcNS_11char_traitsIcEENS_9allocatorIcEEEERNS4_IS6_EEE17__destruct_at_endB8ue170006EPS6_, symObjAddr: 0x432C, symBinAddr: 0x10000A8AC, symSize: 0x2C }
  - { offsetInCU: 0xDBD0, offset: 0x239C0, size: 0x8, addend: 0x0, symName: __ZNSt3__114__split_bufferINS_12basic_stringIcNS_11char_traitsIcEENS_9allocatorIcEEEERNS4_IS6_EEE17__destruct_at_endB8ue170006EPS6_NS_17integral_constantIbLb0EEE, symObjAddr: 0x4358, symBinAddr: 0x10000A8D8, symSize: 0x80 }
  - { offsetInCU: 0xDC0F, offset: 0x239FF, size: 0x8, addend: 0x0, symName: __ZNKSt3__114__split_bufferINS_12basic_stringIcNS_11char_traitsIcEENS_9allocatorIcEEEERNS4_IS6_EEE9__end_capB8ue170006Ev, symObjAddr: 0x43D8, symBinAddr: 0x10000A958, symSize: 0x28 }
  - { offsetInCU: 0xDC33, offset: 0x23A23, size: 0x8, addend: 0x0, symName: __ZNKSt3__117__compressed_pairIPNS_12basic_stringIcNS_11char_traitsIcEENS_9allocatorIcEEEERNS4_IS6_EEE5firstB8ue170006Ev, symObjAddr: 0x4400, symBinAddr: 0x10000A980, symSize: 0x24 }
  - { offsetInCU: 0xDC57, offset: 0x23A47, size: 0x8, addend: 0x0, symName: __ZNSt3__16vectorINS0_INS_12basic_stringIcNS_11char_traitsIcEENS_9allocatorIcEEEENS4_IS6_EEEENS4_IS8_EEE9__end_capB8ue170006Ev, symObjAddr: 0x4424, symBinAddr: 0x10000A9A4, symSize: 0x28 }
  - { offsetInCU: 0xDC7B, offset: 0x23A6B, size: 0x8, addend: 0x0, symName: __ZNSt3__16vectorINS0_INS_12basic_stringIcNS_11char_traitsIcEENS_9allocatorIcEEEENS4_IS6_EEEENS4_IS8_EEE22__construct_one_at_endB8ue170006IJRKS8_EEEvDpOT_, symObjAddr: 0x444C, symBinAddr: 0x10000A9CC, symSize: 0x90 }
  - { offsetInCU: 0xDCC7, offset: 0x23AB7, size: 0x8, addend: 0x0, symName: __ZNSt3__16vectorINS0_INS_12basic_stringIcNS_11char_traitsIcEENS_9allocatorIcEEEENS4_IS6_EEEENS4_IS8_EEE21__push_back_slow_pathIRKS8_EEvOT_, symObjAddr: 0x44DC, symBinAddr: 0x10000AA5C, symSize: 0xD8 }
  - { offsetInCU: 0xDD24, offset: 0x23B14, size: 0x8, addend: 0x0, symName: __ZNSt3__117__compressed_pairIPNS_6vectorINS_12basic_stringIcNS_11char_traitsIcEENS_9allocatorIcEEEENS5_IS7_EEEENS5_IS9_EEE5firstB8ue170006Ev, symObjAddr: 0x45B4, symBinAddr: 0x10000AB34, symSize: 0x24 }
  - { offsetInCU: 0xDD48, offset: 0x23B38, size: 0x8, addend: 0x0, symName: __ZNSt3__122__compressed_pair_elemIPNS_6vectorINS_12basic_stringIcNS_11char_traitsIcEENS_9allocatorIcEEEENS5_IS7_EEEELi0ELb0EE5__getB8ue170006Ev, symObjAddr: 0x45D8, symBinAddr: 0x10000AB58, symSize: 0x14 }
  - { offsetInCU: 0xDD85, offset: 0x23B75, size: 0x8, addend: 0x0, symName: __ZNSt3__16vectorINS0_INS_12basic_stringIcNS_11char_traitsIcEENS_9allocatorIcEEEENS4_IS6_EEEENS4_IS8_EEE21_ConstructTransactionC1B8ue170006ERSA_m, symObjAddr: 0x45EC, symBinAddr: 0x10000AB6C, symSize: 0x3C }
  - { offsetInCU: 0xDDCB, offset: 0x23BBB, size: 0x8, addend: 0x0, symName: __ZNSt3__116allocator_traitsINS_9allocatorINS_6vectorINS_12basic_stringIcNS_11char_traitsIcEENS1_IcEEEENS1_IS7_EEEEEEE9constructB8ue170006IS9_JRKS9_EvEEvRSA_PT_DpOT0_, symObjAddr: 0x4628, symBinAddr: 0x10000ABA8, symSize: 0x34 }
  - { offsetInCU: 0xDE21, offset: 0x23C11, size: 0x8, addend: 0x0, symName: __ZNSt3__16vectorINS0_INS_12basic_stringIcNS_11char_traitsIcEENS_9allocatorIcEEEENS4_IS6_EEEENS4_IS8_EEE21_ConstructTransactionD1B8ue170006Ev, symObjAddr: 0x465C, symBinAddr: 0x10000ABDC, symSize: 0x2C }
  - { offsetInCU: 0xDE49, offset: 0x23C39, size: 0x8, addend: 0x0, symName: __ZNSt3__16vectorINS0_INS_12basic_stringIcNS_11char_traitsIcEENS_9allocatorIcEEEENS4_IS6_EEEENS4_IS8_EEE21_ConstructTransactionC2B8ue170006ERSA_m, symObjAddr: 0x4688, symBinAddr: 0x10000AC08, symSize: 0x4C }
  - { offsetInCU: 0xDE8F, offset: 0x23C7F, size: 0x8, addend: 0x0, symName: __ZNSt3__19allocatorINS_6vectorINS_12basic_stringIcNS_11char_traitsIcEENS0_IcEEEENS0_IS6_EEEEE9constructB8ue170006IS8_JRKS8_EEEvPT_DpOT0_, symObjAddr: 0x46D4, symBinAddr: 0x10000AC54, symSize: 0x30 }
  - { offsetInCU: 0xDEE3, offset: 0x23CD3, size: 0x8, addend: 0x0, symName: __ZNSt3__16vectorINS_12basic_stringIcNS_11char_traitsIcEENS_9allocatorIcEEEENS4_IS6_EEEC1ERKS8_, symObjAddr: 0x4704, symBinAddr: 0x10000AC84, symSize: 0x34 }
  - { offsetInCU: 0xDF1D, offset: 0x23D0D, size: 0x8, addend: 0x0, symName: __ZNSt3__16vectorINS_12basic_stringIcNS_11char_traitsIcEENS_9allocatorIcEEEENS4_IS6_EEEC2ERKS8_, symObjAddr: 0x4738, symBinAddr: 0x10000ACB8, symSize: 0x94 }
  - { offsetInCU: 0xDF57, offset: 0x23D47, size: 0x8, addend: 0x0, symName: __ZNSt3__116allocator_traitsINS_9allocatorINS_12basic_stringIcNS_11char_traitsIcEENS1_IcEEEEEEE37select_on_container_copy_constructionB8ue170006IS7_vvEES7_RKS7_, symObjAddr: 0x47CC, symBinAddr: 0x10000AD4C, symSize: 0x10 }
  - { offsetInCU: 0xDF8B, offset: 0x23D7B, size: 0x8, addend: 0x0, symName: __ZNSt3__117__compressed_pairIPNS_12basic_stringIcNS_11char_traitsIcEENS_9allocatorIcEEEENS4_IS6_EEEC1B8ue170006IDnS8_EEOT_OT0_, symObjAddr: 0x47DC, symBinAddr: 0x10000AD5C, symSize: 0x3C }
  - { offsetInCU: 0xDFE1, offset: 0x23DD1, size: 0x8, addend: 0x0, symName: __ZNSt3__16vectorINS_12basic_stringIcNS_11char_traitsIcEENS_9allocatorIcEEEENS4_IS6_EEE16__init_with_sizeB8ue170006IPS6_SA_EEvT_T0_m, symObjAddr: 0x4818, symBinAddr: 0x10000AD98, symSize: 0xB8 }
  - { offsetInCU: 0xE053, offset: 0x23E43, size: 0x8, addend: 0x0, symName: __ZNSt3__117__compressed_pairIPNS_12basic_stringIcNS_11char_traitsIcEENS_9allocatorIcEEEENS4_IS6_EEEC2B8ue170006IDnS8_EEOT_OT0_, symObjAddr: 0x48D0, symBinAddr: 0x10000AE50, symSize: 0x44 }
  - { offsetInCU: 0xE0A9, offset: 0x23E99, size: 0x8, addend: 0x0, symName: __ZNSt3__122__compressed_pair_elemINS_9allocatorINS_12basic_stringIcNS_11char_traitsIcEENS1_IcEEEEEELi1ELb1EEC2B8ue170006IS7_vEEOT_, symObjAddr: 0x4914, symBinAddr: 0x10000AE94, symSize: 0x18 }
  - { offsetInCU: 0xE0E8, offset: 0x23ED8, size: 0x8, addend: 0x0, symName: __ZNSt3__16vectorINS_12basic_stringIcNS_11char_traitsIcEENS_9allocatorIcEEEENS4_IS6_EEE18__construct_at_endIPS6_SA_EEvT_T0_m, symObjAddr: 0x4A20, symBinAddr: 0x10000AEEC, symSize: 0x8C }
  - { offsetInCU: 0xE15D, offset: 0x23F4D, size: 0x8, addend: 0x0, symName: __ZNSt3__128__exception_guard_exceptionsINS_6vectorINS_12basic_stringIcNS_11char_traitsIcEENS_9allocatorIcEEEENS5_IS7_EEE16__destroy_vectorEE10__completeB8ue170006Ev, symObjAddr: 0x4AAC, symBinAddr: 0x10000AF78, symSize: 0x1C }
  - { offsetInCU: 0xE181, offset: 0x23F71, size: 0x8, addend: 0x0, symName: __ZNSt3__128__exception_guard_exceptionsINS_6vectorINS_12basic_stringIcNS_11char_traitsIcEENS_9allocatorIcEEEENS5_IS7_EEE16__destroy_vectorEED1B8ue170006Ev, symObjAddr: 0x4AC8, symBinAddr: 0x10000AF94, symSize: 0x2C }
  - { offsetInCU: 0xE1A9, offset: 0x23F99, size: 0x8, addend: 0x0, symName: __ZNSt3__128__exception_guard_exceptionsINS_6vectorINS_12basic_stringIcNS_11char_traitsIcEENS_9allocatorIcEEEENS5_IS7_EEE16__destroy_vectorEEC1B8ue170006ESA_, symObjAddr: 0x4AF4, symBinAddr: 0x10000AFC0, symSize: 0x34 }
  - { offsetInCU: 0xE1DF, offset: 0x23FCF, size: 0x8, addend: 0x0, symName: __ZNSt3__128__exception_guard_exceptionsINS_6vectorINS_12basic_stringIcNS_11char_traitsIcEENS_9allocatorIcEEEENS5_IS7_EEE16__destroy_vectorEEC2B8ue170006ESA_, symObjAddr: 0x4B28, symBinAddr: 0x10000AFF4, symSize: 0x24 }
  - { offsetInCU: 0xE233, offset: 0x24023, size: 0x8, addend: 0x0, symName: __ZNSt3__14pairIPNS_12basic_stringIcNS_11char_traitsIcEENS_9allocatorIcEEEES7_EC1B8ue170006IS7_S7_LPv0EEEOT_OT0_, symObjAddr: 0x4DB8, symBinAddr: 0x10000B224, symSize: 0x3C }
  - { offsetInCU: 0xE290, offset: 0x24080, size: 0x8, addend: 0x0, symName: __ZNSt3__14pairIPNS_12basic_stringIcNS_11char_traitsIcEENS_9allocatorIcEEEES7_EC2B8ue170006IS7_S7_LPv0EEEOT_OT0_, symObjAddr: 0x4DF4, symBinAddr: 0x10000B260, symSize: 0x34 }
  - { offsetInCU: 0xE2ED, offset: 0x240DD, size: 0x8, addend: 0x0, symName: __ZNSt3__116allocator_traitsINS_9allocatorINS_12basic_stringIcNS_11char_traitsIcEENS1_IcEEEEEEE9constructB8ue170006IS6_JRS6_EvEEvRS7_PT_DpOT0_, symObjAddr: 0x4EB8, symBinAddr: 0x10000B294, symSize: 0x34 }
  - { offsetInCU: 0xE343, offset: 0x24133, size: 0x8, addend: 0x0, symName: __ZNSt3__19allocatorINS_12basic_stringIcNS_11char_traitsIcEENS0_IcEEEEE9constructB8ue170006IS5_JRS5_EEEvPT_DpOT0_, symObjAddr: 0x4FD0, symBinAddr: 0x10000B2C8, symSize: 0x30 }
  - { offsetInCU: 0xE397, offset: 0x24187, size: 0x8, addend: 0x0, symName: __ZNSt3__128__exception_guard_exceptionsINS_6vectorINS_12basic_stringIcNS_11char_traitsIcEENS_9allocatorIcEEEENS5_IS7_EEE16__destroy_vectorEED2B8ue170006Ev, symObjAddr: 0x51A4, symBinAddr: 0x10000B2F8, symSize: 0x48 }
  - { offsetInCU: 0xE3BF, offset: 0x241AF, size: 0x8, addend: 0x0, symName: __ZNSt3__16vectorINS0_INS_12basic_stringIcNS_11char_traitsIcEENS_9allocatorIcEEEENS4_IS6_EEEENS4_IS8_EEE21_ConstructTransactionD2B8ue170006Ev, symObjAddr: 0x51EC, symBinAddr: 0x10000B340, symSize: 0x20 }
  - { offsetInCU: 0xE3E6, offset: 0x241D6, size: 0x8, addend: 0x0, symName: __ZNKSt3__16vectorINS0_INS_12basic_stringIcNS_11char_traitsIcEENS_9allocatorIcEEEENS4_IS6_EEEENS4_IS8_EEE11__recommendB8ue170006Em, symObjAddr: 0x520C, symBinAddr: 0x10000B360, symSize: 0xB4 }
  - { offsetInCU: 0xE43A, offset: 0x2422A, size: 0x8, addend: 0x0, symName: __ZNSt3__114__split_bufferINS_6vectorINS_12basic_stringIcNS_11char_traitsIcEENS_9allocatorIcEEEENS5_IS7_EEEERNS5_IS9_EEEC1EmmSB_, symObjAddr: 0x52C0, symBinAddr: 0x10000B414, symSize: 0x44 }
  - { offsetInCU: 0xE48F, offset: 0x2427F, size: 0x8, addend: 0x0, symName: __ZNSt3__114__split_bufferINS_6vectorINS_12basic_stringIcNS_11char_traitsIcEENS_9allocatorIcEEEENS5_IS7_EEEERNS5_IS9_EEED1Ev, symObjAddr: 0x5414, symBinAddr: 0x10000B568, symSize: 0x2C }
  - { offsetInCU: 0xE4B9, offset: 0x242A9, size: 0x8, addend: 0x0, symName: __ZNKSt3__16vectorINS0_INS_12basic_stringIcNS_11char_traitsIcEENS_9allocatorIcEEEENS4_IS6_EEEENS4_IS8_EEE8max_sizeEv, symObjAddr: 0x5440, symBinAddr: 0x10000B594, symSize: 0x60 }
  - { offsetInCU: 0xE4E0, offset: 0x242D0, size: 0x8, addend: 0x0, symName: __ZNKSt3__16vectorINS0_INS_12basic_stringIcNS_11char_traitsIcEENS_9allocatorIcEEEENS4_IS6_EEEENS4_IS8_EEE20__throw_length_errorB8ue170006Ev, symObjAddr: 0x54A0, symBinAddr: 0x10000B5F4, symSize: 0x1C }
  - { offsetInCU: 0xE50E, offset: 0x242FE, size: 0x8, addend: 0x0, symName: __ZNSt3__116allocator_traitsINS_9allocatorINS_6vectorINS_12basic_stringIcNS_11char_traitsIcEENS1_IcEEEENS1_IS7_EEEEEEE8max_sizeB8ue170006ISA_vEEmRKSA_, symObjAddr: 0x54BC, symBinAddr: 0x10000B610, symSize: 0x24 }
  - { offsetInCU: 0xE53B, offset: 0x2432B, size: 0x8, addend: 0x0, symName: __ZNKSt3__16vectorINS0_INS_12basic_stringIcNS_11char_traitsIcEENS_9allocatorIcEEEENS4_IS6_EEEENS4_IS8_EEE7__allocB8ue170006Ev, symObjAddr: 0x54E0, symBinAddr: 0x10000B634, symSize: 0x28 }
  - { offsetInCU: 0xE55F, offset: 0x2434F, size: 0x8, addend: 0x0, symName: __ZNKSt3__19allocatorINS_6vectorINS_12basic_stringIcNS_11char_traitsIcEENS0_IcEEEENS0_IS6_EEEEE8max_sizeB8ue170006Ev, symObjAddr: 0x5508, symBinAddr: 0x10000B65C, symSize: 0x18 }
  - { offsetInCU: 0xE583, offset: 0x24373, size: 0x8, addend: 0x0, symName: __ZNKSt3__117__compressed_pairIPNS_6vectorINS_12basic_stringIcNS_11char_traitsIcEENS_9allocatorIcEEEENS5_IS7_EEEENS5_IS9_EEE6secondB8ue170006Ev, symObjAddr: 0x5520, symBinAddr: 0x10000B674, symSize: 0x24 }
  - { offsetInCU: 0xE5A7, offset: 0x24397, size: 0x8, addend: 0x0, symName: __ZNKSt3__122__compressed_pair_elemINS_9allocatorINS_6vectorINS_12basic_stringIcNS_11char_traitsIcEENS1_IcEEEENS1_IS7_EEEEEELi1ELb1EE5__getB8ue170006Ev, symObjAddr: 0x5544, symBinAddr: 0x10000B698, symSize: 0x14 }
  - { offsetInCU: 0xE5CB, offset: 0x243BB, size: 0x8, addend: 0x0, symName: __ZNSt3__114__split_bufferINS_6vectorINS_12basic_stringIcNS_11char_traitsIcEENS_9allocatorIcEEEENS5_IS7_EEEERNS5_IS9_EEEC2EmmSB_, symObjAddr: 0x5558, symBinAddr: 0x10000B6AC, symSize: 0xE0 }
  - { offsetInCU: 0xE63D, offset: 0x2442D, size: 0x8, addend: 0x0, symName: __ZNSt3__117__compressed_pairIPNS_6vectorINS_12basic_stringIcNS_11char_traitsIcEENS_9allocatorIcEEEENS5_IS7_EEEERNS5_IS9_EEEC1B8ue170006IDnSC_EEOT_OT0_, symObjAddr: 0x5638, symBinAddr: 0x10000B78C, symSize: 0x3C }
  - { offsetInCU: 0xE693, offset: 0x24483, size: 0x8, addend: 0x0, symName: __ZNSt3__114__split_bufferINS_6vectorINS_12basic_stringIcNS_11char_traitsIcEENS_9allocatorIcEEEENS5_IS7_EEEERNS5_IS9_EEE7__allocB8ue170006Ev, symObjAddr: 0x56B4, symBinAddr: 0x10000B808, symSize: 0x28 }
  - { offsetInCU: 0xE6B7, offset: 0x244A7, size: 0x8, addend: 0x0, symName: __ZNSt3__114__split_bufferINS_6vectorINS_12basic_stringIcNS_11char_traitsIcEENS_9allocatorIcEEEENS5_IS7_EEEERNS5_IS9_EEE9__end_capB8ue170006Ev, symObjAddr: 0x56DC, symBinAddr: 0x10000B830, symSize: 0x28 }
  - { offsetInCU: 0xE6DB, offset: 0x244CB, size: 0x8, addend: 0x0, symName: __ZNSt3__117__compressed_pairIPNS_6vectorINS_12basic_stringIcNS_11char_traitsIcEENS_9allocatorIcEEEENS5_IS7_EEEERNS5_IS9_EEEC2B8ue170006IDnSC_EEOT_OT0_, symObjAddr: 0x5704, symBinAddr: 0x10000B858, symSize: 0x48 }
  - { offsetInCU: 0xE731, offset: 0x24521, size: 0x8, addend: 0x0, symName: __ZNSt3__122__compressed_pair_elemIRNS_9allocatorINS_6vectorINS_12basic_stringIcNS_11char_traitsIcEENS1_IcEEEENS1_IS7_EEEEEELi1ELb0EEC2B8ue170006ISB_vEEOT_, symObjAddr: 0x574C, symBinAddr: 0x10000B8A0, symSize: 0x20 }
  - { offsetInCU: 0xE771, offset: 0x24561, size: 0x8, addend: 0x0, symName: __ZNSt3__19allocatorINS_6vectorINS_12basic_stringIcNS_11char_traitsIcEENS0_IcEEEENS0_IS6_EEEEE8allocateB8ue170006Em, symObjAddr: 0x576C, symBinAddr: 0x10000B8C0, symSize: 0x5C }
  - { offsetInCU: 0xE7A3, offset: 0x24593, size: 0x8, addend: 0x0, symName: __ZNSt3__117__compressed_pairIPNS_6vectorINS_12basic_stringIcNS_11char_traitsIcEENS_9allocatorIcEEEENS5_IS7_EEEERNS5_IS9_EEE6secondB8ue170006Ev, symObjAddr: 0x57C8, symBinAddr: 0x10000B91C, symSize: 0x28 }
  - { offsetInCU: 0xE7C7, offset: 0x245B7, size: 0x8, addend: 0x0, symName: __ZNSt3__122__compressed_pair_elemIRNS_9allocatorINS_6vectorINS_12basic_stringIcNS_11char_traitsIcEENS1_IcEEEENS1_IS7_EEEEEELi1ELb0EE5__getB8ue170006Ev, symObjAddr: 0x57F0, symBinAddr: 0x10000B944, symSize: 0x18 }
  - { offsetInCU: 0xE7EB, offset: 0x245DB, size: 0x8, addend: 0x0, symName: __ZNSt3__117__compressed_pairIPNS_6vectorINS_12basic_stringIcNS_11char_traitsIcEENS_9allocatorIcEEEENS5_IS7_EEEERNS5_IS9_EEE5firstB8ue170006Ev, symObjAddr: 0x5808, symBinAddr: 0x10000B95C, symSize: 0x24 }
  - { offsetInCU: 0xE80F, offset: 0x245FF, size: 0x8, addend: 0x0, symName: __ZNSt3__116reverse_iteratorIPNS_6vectorINS_12basic_stringIcNS_11char_traitsIcEENS_9allocatorIcEEEENS5_IS7_EEEEEC1B8ue170006ESA_, symObjAddr: 0x5958, symBinAddr: 0x10000BAAC, symSize: 0x34 }
  - { offsetInCU: 0xE845, offset: 0x24635, size: 0x8, addend: 0x0, symName: __ZNKSt3__116reverse_iteratorIPNS_6vectorINS_12basic_stringIcNS_11char_traitsIcEENS_9allocatorIcEEEENS5_IS7_EEEEE4baseB8ue170006Ev, symObjAddr: 0x598C, symBinAddr: 0x10000BAE0, symSize: 0x18 }
  - { offsetInCU: 0xE869, offset: 0x24659, size: 0x8, addend: 0x0, symName: __ZNKSt3__16vectorINS0_INS_12basic_stringIcNS_11char_traitsIcEENS_9allocatorIcEEEENS4_IS6_EEEENS4_IS8_EEE14__annotate_newB8ue170006Em, symObjAddr: 0x59E0, symBinAddr: 0x10000BB34, symSize: 0xC8 }
  - { offsetInCU: 0xE89C, offset: 0x2468C, size: 0x8, addend: 0x0, symName: __ZNSt3__129_AllocatorDestroyRangeReverseINS_9allocatorINS_6vectorINS_12basic_stringIcNS_11char_traitsIcEENS1_IcEEEENS1_IS7_EEEEEENS_16reverse_iteratorIPS9_EEEC1B8ue170006ERSA_RSD_SG_, symObjAddr: 0x5AF4, symBinAddr: 0x10000BC48, symSize: 0x44 }
  - { offsetInCU: 0xE8F1, offset: 0x246E1, size: 0x8, addend: 0x0, symName: __ZNSt3__116allocator_traitsINS_9allocatorINS_6vectorINS_12basic_stringIcNS_11char_traitsIcEENS1_IcEEEENS1_IS7_EEEEEEE9constructB8ue170006IS9_JS9_EvEEvRSA_PT_DpOT0_, symObjAddr: 0x5B80, symBinAddr: 0x10000BCD4, symSize: 0x34 }
  - { offsetInCU: 0xE947, offset: 0x24737, size: 0x8, addend: 0x0, symName: __ZNKSt3__116reverse_iteratorIPNS_6vectorINS_12basic_stringIcNS_11char_traitsIcEENS_9allocatorIcEEEENS5_IS7_EEEEEdeB8ue170006Ev, symObjAddr: 0x5BD8, symBinAddr: 0x10000BD2C, symSize: 0x28 }
  - { offsetInCU: 0xE979, offset: 0x24769, size: 0x8, addend: 0x0, symName: __ZNSt3__116reverse_iteratorIPNS_6vectorINS_12basic_stringIcNS_11char_traitsIcEENS_9allocatorIcEEEENS5_IS7_EEEEEppB8ue170006Ev, symObjAddr: 0x5C00, symBinAddr: 0x10000BD54, symSize: 0x20 }
  - { offsetInCU: 0xE99D, offset: 0x2478D, size: 0x8, addend: 0x0, symName: __ZNSt3__128__exception_guard_exceptionsINS_29_AllocatorDestroyRangeReverseINS_9allocatorINS_6vectorINS_12basic_stringIcNS_11char_traitsIcEENS2_IcEEEENS2_IS8_EEEEEENS_16reverse_iteratorIPSA_EEEEE10__completeB8ue170006Ev, symObjAddr: 0x5C20, symBinAddr: 0x10000BD74, symSize: 0x1C }
  - { offsetInCU: 0xE9C1, offset: 0x247B1, size: 0x8, addend: 0x0, symName: __ZNSt3__128__exception_guard_exceptionsINS_29_AllocatorDestroyRangeReverseINS_9allocatorINS_6vectorINS_12basic_stringIcNS_11char_traitsIcEENS2_IcEEEENS2_IS8_EEEEEENS_16reverse_iteratorIPSA_EEEEED1B8ue170006Ev, symObjAddr: 0x5C3C, symBinAddr: 0x10000BD90, symSize: 0x2C }
  - { offsetInCU: 0xE9E9, offset: 0x247D9, size: 0x8, addend: 0x0, symName: __ZNSt3__128__exception_guard_exceptionsINS_29_AllocatorDestroyRangeReverseINS_9allocatorINS_6vectorINS_12basic_stringIcNS_11char_traitsIcEENS2_IcEEEENS2_IS8_EEEEEENS_16reverse_iteratorIPSA_EEEEEC1B8ue170006ESF_, symObjAddr: 0x5C68, symBinAddr: 0x10000BDBC, symSize: 0x34 }
  - { offsetInCU: 0xEA20, offset: 0x24810, size: 0x8, addend: 0x0, symName: __ZNSt3__128__exception_guard_exceptionsINS_29_AllocatorDestroyRangeReverseINS_9allocatorINS_6vectorINS_12basic_stringIcNS_11char_traitsIcEENS2_IcEEEENS2_IS8_EEEEEENS_16reverse_iteratorIPSA_EEEEEC2B8ue170006ESF_, symObjAddr: 0x5C9C, symBinAddr: 0x10000BDF0, symSize: 0x30 }
  - { offsetInCU: 0xEA57, offset: 0x24847, size: 0x8, addend: 0x0, symName: __ZNSt3__129_AllocatorDestroyRangeReverseINS_9allocatorINS_6vectorINS_12basic_stringIcNS_11char_traitsIcEENS1_IcEEEENS1_IS7_EEEEEENS_16reverse_iteratorIPS9_EEEC2B8ue170006ERSA_RSD_SG_, symObjAddr: 0x5CCC, symBinAddr: 0x10000BE20, symSize: 0x38 }
  - { offsetInCU: 0xEAAC, offset: 0x2489C, size: 0x8, addend: 0x0, symName: __ZNSt3__19allocatorINS_6vectorINS_12basic_stringIcNS_11char_traitsIcEENS0_IcEEEENS0_IS6_EEEEE9constructB8ue170006IS8_JS8_EEEvPT_DpOT0_, symObjAddr: 0x5D04, symBinAddr: 0x10000BE58, symSize: 0x30 }
  - { offsetInCU: 0xEB00, offset: 0x248F0, size: 0x8, addend: 0x0, symName: __ZNSt3__16vectorINS_12basic_stringIcNS_11char_traitsIcEENS_9allocatorIcEEEENS4_IS6_EEEC1B8ue170006EOS8_, symObjAddr: 0x5D34, symBinAddr: 0x10000BE88, symSize: 0x34 }
  - { offsetInCU: 0xEB3A, offset: 0x2492A, size: 0x8, addend: 0x0, symName: __ZNSt3__16vectorINS_12basic_stringIcNS_11char_traitsIcEENS_9allocatorIcEEEENS4_IS6_EEEC2B8ue170006EOS8_, symObjAddr: 0x5D68, symBinAddr: 0x10000BEBC, symSize: 0xC4 }
  - { offsetInCU: 0xEB79, offset: 0x24969, size: 0x8, addend: 0x0, symName: __ZNSt3__119__to_address_helperINS_16reverse_iteratorIPNS_6vectorINS_12basic_stringIcNS_11char_traitsIcEENS_9allocatorIcEEEENS6_IS8_EEEEEEvE6__callB8ue170006ERKSC_, symObjAddr: 0x5E2C, symBinAddr: 0x10000BF80, symSize: 0x38 }
  - { offsetInCU: 0xEB9B, offset: 0x2498B, size: 0x8, addend: 0x0, symName: __ZNKSt3__116reverse_iteratorIPNS_6vectorINS_12basic_stringIcNS_11char_traitsIcEENS_9allocatorIcEEEENS5_IS7_EEEEEptB8ue170006Ev, symObjAddr: 0x5E64, symBinAddr: 0x10000BFB8, symSize: 0x24 }
  - { offsetInCU: 0xEBBF, offset: 0x249AF, size: 0x8, addend: 0x0, symName: __ZNSt3__128__exception_guard_exceptionsINS_29_AllocatorDestroyRangeReverseINS_9allocatorINS_6vectorINS_12basic_stringIcNS_11char_traitsIcEENS2_IcEEEENS2_IS8_EEEEEENS_16reverse_iteratorIPSA_EEEEED2B8ue170006Ev, symObjAddr: 0x5E88, symBinAddr: 0x10000BFDC, symSize: 0x50 }
  - { offsetInCU: 0xEBE7, offset: 0x249D7, size: 0x8, addend: 0x0, symName: __ZNKSt3__129_AllocatorDestroyRangeReverseINS_9allocatorINS_6vectorINS_12basic_stringIcNS_11char_traitsIcEENS1_IcEEEENS1_IS7_EEEEEENS_16reverse_iteratorIPS9_EEEclB8ue170006Ev, symObjAddr: 0x5ED8, symBinAddr: 0x10000C02C, symSize: 0xB4 }
  - { offsetInCU: 0xEC0C, offset: 0x249FC, size: 0x8, addend: 0x0, symName: __ZNSt3__116reverse_iteratorINS0_IPNS_6vectorINS_12basic_stringIcNS_11char_traitsIcEENS_9allocatorIcEEEENS5_IS7_EEEEEEEC1B8ue170006ESB_, symObjAddr: 0x5FFC, symBinAddr: 0x10000C150, symSize: 0x3C }
  - { offsetInCU: 0xEC42, offset: 0x24A32, size: 0x8, addend: 0x0, symName: __ZNSt3__116reverse_iteratorINS0_IPNS_6vectorINS_12basic_stringIcNS_11char_traitsIcEENS_9allocatorIcEEEENS5_IS7_EEEEEEEppB8ue170006Ev, symObjAddr: 0x60BC, symBinAddr: 0x10000C210, symSize: 0x30 }
  - { offsetInCU: 0xEC66, offset: 0x24A56, size: 0x8, addend: 0x0, symName: __ZNKSt3__116reverse_iteratorINS0_IPNS_6vectorINS_12basic_stringIcNS_11char_traitsIcEENS_9allocatorIcEEEENS5_IS7_EEEEEEE4baseB8ue170006Ev, symObjAddr: 0x60EC, symBinAddr: 0x10000C240, symSize: 0x24 }
  - { offsetInCU: 0xEC8F, offset: 0x24A7F, size: 0x8, addend: 0x0, symName: __ZNSt3__119__to_address_helperINS_16reverse_iteratorINS1_IPNS_6vectorINS_12basic_stringIcNS_11char_traitsIcEENS_9allocatorIcEEEENS6_IS8_EEEEEEEEvE6__callB8ue170006ERKSD_, symObjAddr: 0x6110, symBinAddr: 0x10000C264, symSize: 0x38 }
  - { offsetInCU: 0xECB1, offset: 0x24AA1, size: 0x8, addend: 0x0, symName: __ZNKSt3__116reverse_iteratorINS0_IPNS_6vectorINS_12basic_stringIcNS_11char_traitsIcEENS_9allocatorIcEEEENS5_IS7_EEEEEEEptB8ue170006Ev, symObjAddr: 0x6148, symBinAddr: 0x10000C29C, symSize: 0x24 }
  - { offsetInCU: 0xECD5, offset: 0x24AC5, size: 0x8, addend: 0x0, symName: __ZNKSt3__116reverse_iteratorINS0_IPNS_6vectorINS_12basic_stringIcNS_11char_traitsIcEENS_9allocatorIcEEEENS5_IS7_EEEEEEEdeB8ue170006Ev, symObjAddr: 0x616C, symBinAddr: 0x10000C2C0, symSize: 0x34 }
  - { offsetInCU: 0xED07, offset: 0x24AF7, size: 0x8, addend: 0x0, symName: __ZNSt3__116reverse_iteratorIPNS_6vectorINS_12basic_stringIcNS_11char_traitsIcEENS_9allocatorIcEEEENS5_IS7_EEEEEmmB8ue170006Ev, symObjAddr: 0x61A0, symBinAddr: 0x10000C2F4, symSize: 0x20 }
  - { offsetInCU: 0xED2B, offset: 0x24B1B, size: 0x8, addend: 0x0, symName: __ZNSt3__116reverse_iteratorINS0_IPNS_6vectorINS_12basic_stringIcNS_11char_traitsIcEENS_9allocatorIcEEEENS5_IS7_EEEEEEEC2B8ue170006ESB_, symObjAddr: 0x61C0, symBinAddr: 0x10000C314, symSize: 0x2C }
  - { offsetInCU: 0xED61, offset: 0x24B51, size: 0x8, addend: 0x0, symName: __ZNSt3__116reverse_iteratorIPNS_6vectorINS_12basic_stringIcNS_11char_traitsIcEENS_9allocatorIcEEEENS5_IS7_EEEEEC2B8ue170006ESA_, symObjAddr: 0x61EC, symBinAddr: 0x10000C340, symSize: 0x28 }
  - { offsetInCU: 0xED97, offset: 0x24B87, size: 0x8, addend: 0x0, symName: __ZNSt3__114__split_bufferINS_6vectorINS_12basic_stringIcNS_11char_traitsIcEENS_9allocatorIcEEEENS5_IS7_EEEERNS5_IS9_EEED2Ev, symObjAddr: 0x6214, symBinAddr: 0x10000C368, symSize: 0x8C }
  - { offsetInCU: 0xEDC2, offset: 0x24BB2, size: 0x8, addend: 0x0, symName: __ZNSt3__114__split_bufferINS_6vectorINS_12basic_stringIcNS_11char_traitsIcEENS_9allocatorIcEEEENS5_IS7_EEEERNS5_IS9_EEE5clearB8ue170006Ev, symObjAddr: 0x62A0, symBinAddr: 0x10000C3F4, symSize: 0x28 }
  - { offsetInCU: 0xEDE6, offset: 0x24BD6, size: 0x8, addend: 0x0, symName: __ZNKSt3__114__split_bufferINS_6vectorINS_12basic_stringIcNS_11char_traitsIcEENS_9allocatorIcEEEENS5_IS7_EEEERNS5_IS9_EEE8capacityB8ue170006Ev, symObjAddr: 0x62C8, symBinAddr: 0x10000C41C, symSize: 0x40 }
  - { offsetInCU: 0xEE0A, offset: 0x24BFA, size: 0x8, addend: 0x0, symName: __ZNSt3__114__split_bufferINS_6vectorINS_12basic_stringIcNS_11char_traitsIcEENS_9allocatorIcEEEENS5_IS7_EEEERNS5_IS9_EEE17__destruct_at_endB8ue170006EPS9_, symObjAddr: 0x6308, symBinAddr: 0x10000C45C, symSize: 0x2C }
  - { offsetInCU: 0xEE3B, offset: 0x24C2B, size: 0x8, addend: 0x0, symName: __ZNSt3__114__split_bufferINS_6vectorINS_12basic_stringIcNS_11char_traitsIcEENS_9allocatorIcEEEENS5_IS7_EEEERNS5_IS9_EEE17__destruct_at_endB8ue170006EPS9_NS_17integral_constantIbLb0EEE, symObjAddr: 0x6334, symBinAddr: 0x10000C488, symSize: 0x80 }
  - { offsetInCU: 0xEE7A, offset: 0x24C6A, size: 0x8, addend: 0x0, symName: __ZNKSt3__114__split_bufferINS_6vectorINS_12basic_stringIcNS_11char_traitsIcEENS_9allocatorIcEEEENS5_IS7_EEEERNS5_IS9_EEE9__end_capB8ue170006Ev, symObjAddr: 0x63B4, symBinAddr: 0x10000C508, symSize: 0x28 }
  - { offsetInCU: 0xEE9E, offset: 0x24C8E, size: 0x8, addend: 0x0, symName: __ZNKSt3__117__compressed_pairIPNS_6vectorINS_12basic_stringIcNS_11char_traitsIcEENS_9allocatorIcEEEENS5_IS7_EEEERNS5_IS9_EEE5firstB8ue170006Ev, symObjAddr: 0x63DC, symBinAddr: 0x10000C530, symSize: 0x24 }
  - { offsetInCU: 0xEEC2, offset: 0x24CB2, size: 0x8, addend: 0x0, symName: __ZNSt3__16vectorINS0_INS_12basic_stringIcNS_11char_traitsIcEENS_9allocatorIcEEEENS4_IS6_EEEENS4_IS8_EEE11__make_iterB8ue170006EPS8_, symObjAddr: 0x6400, symBinAddr: 0x10000C554, symSize: 0x30 }
  - { offsetInCU: 0xEEF5, offset: 0x24CE5, size: 0x8, addend: 0x0, symName: __ZNSt3__111__wrap_iterIPNS_6vectorINS_12basic_stringIcNS_11char_traitsIcEENS_9allocatorIcEEEENS5_IS7_EEEEEC1B8ue170006ESA_, symObjAddr: 0x6430, symBinAddr: 0x10000C584, symSize: 0x34 }
  - { offsetInCU: 0xEF2B, offset: 0x24D1B, size: 0x8, addend: 0x0, symName: __ZNSt3__111__wrap_iterIPNS_6vectorINS_12basic_stringIcNS_11char_traitsIcEENS_9allocatorIcEEEENS5_IS7_EEEEEC2B8ue170006ESA_, symObjAddr: 0x6464, symBinAddr: 0x10000C5B8, symSize: 0x20 }
  - { offsetInCU: 0xEF61, offset: 0x24D51, size: 0x8, addend: 0x0, symName: __ZNSt3__111char_traitsIcE7compareB8ue170006EPKcS3_m, symObjAddr: 0x6484, symBinAddr: 0x10000C5D8, symSize: 0x34 }
  - { offsetInCU: 0x61A9, offset: 0x2B022, size: 0x8, addend: 0x0, symName: __ZNSt3__1neB8ue170006IPKNS_6vectorINS_12basic_stringIcNS_11char_traitsIcEENS_9allocatorIcEEEENS5_IS7_EEEEEEbRKNS_11__wrap_iterIT_EESG_, symObjAddr: 0x32C, symBinAddr: 0x10000C938, symSize: 0x34 }
  - { offsetInCU: 0x61EC, offset: 0x2B065, size: 0x8, addend: 0x0, symName: __ZNSt3__1eqB8ue170006IPKNS_6vectorINS_12basic_stringIcNS_11char_traitsIcEENS_9allocatorIcEEEENS5_IS7_EEEEEEbRKNS_11__wrap_iterIT_EESG_, symObjAddr: 0x478, symBinAddr: 0x10000CA58, symSize: 0x48 }
  - { offsetInCU: 0x622F, offset: 0x2B0A8, size: 0x8, addend: 0x0, symName: __ZNSt3__119__allocate_at_leastB8ue170006INS_9allocatorI11CandlestickEEEENS_19__allocation_resultINS_16allocator_traitsIT_E7pointerEEERS6_m, symObjAddr: 0x16A0, symBinAddr: 0x10000D46C, symSize: 0x40 }
  - { offsetInCU: 0x6272, offset: 0x2B0EB, size: 0x8, addend: 0x0, symName: __ZNSt3__142__uninitialized_allocator_move_if_noexceptB8ue170006INS_9allocatorI11CandlestickEENS_16reverse_iteratorIPS2_EES6_S6_EET2_RT_T0_T1_S7_, symObjAddr: 0x18D8, symBinAddr: 0x10000D624, symSize: 0x12C }
  - { offsetInCU: 0x6312, offset: 0x2B18B, size: 0x8, addend: 0x0, symName: __ZNSt3__14swapB8ue170006IP11CandlestickEENS_9enable_ifIXaasr21is_move_constructibleIT_EE5valuesr18is_move_assignableIS4_EE5valueEvE4typeERS4_S7_, symObjAddr: 0x1A50, symBinAddr: 0x10000D79C, symSize: 0x3C }
  - { offsetInCU: 0x6363, offset: 0x2B1DC, size: 0x8, addend: 0x0, symName: __ZNSt3__122__make_exception_guardB8ue170006INS_29_AllocatorDestroyRangeReverseINS_9allocatorI11CandlestickEENS_16reverse_iteratorIPS3_EEEEEENS_28__exception_guard_exceptionsIT_EESA_, symObjAddr: 0x1B54, symBinAddr: 0x10000D8A0, symSize: 0x4C }
  - { offsetInCU: 0x6399, offset: 0x2B212, size: 0x8, addend: 0x0, symName: __ZNSt3__1neB8ue170006IP11CandlestickS2_EEbRKNS_16reverse_iteratorIT_EERKNS3_IT0_EE, symObjAddr: 0x1BE4, symBinAddr: 0x10000D930, symSize: 0x48 }
  - { offsetInCU: 0x63E5, offset: 0x2B25E, size: 0x8, addend: 0x0, symName: __ZNSt3__112__to_addressB8ue170006INS_16reverse_iteratorIP11CandlestickEEvEEu7__decayIDTclsr19__to_address_helperIT_EE6__callclsr3stdE7declvalIRKS5_EEEEES7_, symObjAddr: 0x1C60, symBinAddr: 0x10000D9AC, symSize: 0x24 }
  - { offsetInCU: 0x6445, offset: 0x2B2BE, size: 0x8, addend: 0x0, symName: __ZNSt3__119__allocator_destroyB8ue170006INS_9allocatorI11CandlestickEENS_16reverse_iteratorINS4_IPS2_EEEES7_EEvRT_T0_T1_, symObjAddr: 0x20B8, symBinAddr: 0x10000DD08, symSize: 0x70 }
  - { offsetInCU: 0x64AA, offset: 0x2B323, size: 0x8, addend: 0x0, symName: __ZNSt3__1neB8ue170006INS_16reverse_iteratorIP11CandlestickEES4_EEbRKNS1_IT_EERKNS1_IT0_EE, symObjAddr: 0x2164, symBinAddr: 0x10000DDB4, symSize: 0x60 }
  - { offsetInCU: 0x64F6, offset: 0x2B36F, size: 0x8, addend: 0x0, symName: __ZNSt3__112__to_addressB8ue170006INS_16reverse_iteratorINS1_IP11CandlestickEEEEvEEu7__decayIDTclsr19__to_address_helperIT_EE6__callclsr3stdE7declvalIRKS6_EEEEES8_, symObjAddr: 0x21C4, symBinAddr: 0x10000DE14, symSize: 0x24 }
  - { offsetInCU: 0x6A52, offset: 0x2B8CB, size: 0x8, addend: 0x0, symName: __ZNSt3__16vectorI11CandlestickNS_9allocatorIS1_EEE26__swap_out_circular_bufferERNS_14__split_bufferIS1_RS3_EE, symObjAddr: 0x10F4, symBinAddr: 0x10000D0F4, symSize: 0x110 }
  - { offsetInCU: 0x8876, offset: 0x2D6EF, size: 0x8, addend: 0x0, symName: __ZN24CandlestickDataProcessor7processERKNSt3__16vectorINS1_INS0_12basic_stringIcNS0_11char_traitsIcEENS0_9allocatorIcEEEENS5_IS7_EEEENS5_IS9_EEEE, symObjAddr: 0x0, symBinAddr: 0x10000C60C, symSize: 0x200 }
  - { offsetInCU: 0x8948, offset: 0x2D7C1, size: 0x8, addend: 0x0, symName: __ZNSt3__16vectorI11CandlestickNS_9allocatorIS1_EEEC1B8ue170006Ev, symObjAddr: 0x200, symBinAddr: 0x10000C80C, symSize: 0x2C }
  - { offsetInCU: 0x8970, offset: 0x2D7E9, size: 0x8, addend: 0x0, symName: __ZNKSt3__16vectorINS0_INS_12basic_stringIcNS_11char_traitsIcEENS_9allocatorIcEEEENS4_IS6_EEEENS4_IS8_EEE5emptyB8ue170006Ev, symObjAddr: 0x22C, symBinAddr: 0x10000C838, symSize: 0x28 }
  - { offsetInCU: 0x8994, offset: 0x2D80D, size: 0x8, addend: 0x0, symName: __ZNKSt3__16vectorINS0_INS_12basic_stringIcNS_11char_traitsIcEENS_9allocatorIcEEEENS4_IS6_EEEENS4_IS8_EEE5frontB8ue170006Ev, symObjAddr: 0x254, symBinAddr: 0x10000C860, symSize: 0x18 }
  - { offsetInCU: 0x89B8, offset: 0x2D831, size: 0x8, addend: 0x0, symName: __ZNKSt3__16vectorINS_12basic_stringIcNS_11char_traitsIcEENS_9allocatorIcEEEENS4_IS6_EEE4backB8ue170006Ev, symObjAddr: 0x26C, symBinAddr: 0x10000C878, symSize: 0x1C }
  - { offsetInCU: 0x89DC, offset: 0x2D855, size: 0x8, addend: 0x0, symName: __ZNKSt3__16vectorINS0_INS_12basic_stringIcNS_11char_traitsIcEENS_9allocatorIcEEEENS4_IS6_EEEENS4_IS8_EEE4backB8ue170006Ev, symObjAddr: 0x288, symBinAddr: 0x10000C894, symSize: 0x1C }
  - { offsetInCU: 0x8A00, offset: 0x2D879, size: 0x8, addend: 0x0, symName: __ZNSt3__114numeric_limitsIdE6lowestB8ue170006Ev, symObjAddr: 0x2A4, symBinAddr: 0x10000C8B0, symSize: 0x14 }
  - { offsetInCU: 0x8A14, offset: 0x2D88D, size: 0x8, addend: 0x0, symName: __ZNSt3__114numeric_limitsIdE3maxB8ue170006Ev, symObjAddr: 0x2B8, symBinAddr: 0x10000C8C4, symSize: 0x14 }
  - { offsetInCU: 0x8A28, offset: 0x2D8A1, size: 0x8, addend: 0x0, symName: __ZNKSt3__16vectorINS0_INS_12basic_stringIcNS_11char_traitsIcEENS_9allocatorIcEEEENS4_IS6_EEEENS4_IS8_EEE5beginB8ue170006Ev, symObjAddr: 0x2CC, symBinAddr: 0x10000C8D8, symSize: 0x30 }
  - { offsetInCU: 0x8A4E, offset: 0x2D8C7, size: 0x8, addend: 0x0, symName: __ZNKSt3__16vectorINS0_INS_12basic_stringIcNS_11char_traitsIcEENS_9allocatorIcEEEENS4_IS6_EEEENS4_IS8_EEE3endB8ue170006Ev, symObjAddr: 0x2FC, symBinAddr: 0x10000C908, symSize: 0x30 }
  - { offsetInCU: 0x8A74, offset: 0x2D8ED, size: 0x8, addend: 0x0, symName: __ZNKSt3__111__wrap_iterIPKNS_6vectorINS_12basic_stringIcNS_11char_traitsIcEENS_9allocatorIcEEEENS5_IS7_EEEEEdeB8ue170006Ev, symObjAddr: 0x360, symBinAddr: 0x10000C96C, symSize: 0x18 }
  - { offsetInCU: 0x8A98, offset: 0x2D911, size: 0x8, addend: 0x0, symName: __ZNSt3__111__wrap_iterIPKNS_6vectorINS_12basic_stringIcNS_11char_traitsIcEENS_9allocatorIcEEEENS5_IS7_EEEEEppB8ue170006Ev, symObjAddr: 0x378, symBinAddr: 0x10000C984, symSize: 0x20 }
  - { offsetInCU: 0x8AC1, offset: 0x2D93A, size: 0x8, addend: 0x0, symName: __ZNSt3__16vectorI11CandlestickNS_9allocatorIS1_EEE12emplace_backIJRdS6_S6_S6_EEEvDpOT_, symObjAddr: 0x398, symBinAddr: 0x10000C9A4, symSize: 0x90 }
  - { offsetInCU: 0x8B3D, offset: 0x2D9B6, size: 0x8, addend: 0x0, symName: __ZNSt3__123__libcpp_numeric_limitsIdLb1EE6lowestB8ue170006Ev, symObjAddr: 0x454, symBinAddr: 0x10000CA34, symSize: 0x18 }
  - { offsetInCU: 0x8B51, offset: 0x2D9CA, size: 0x8, addend: 0x0, symName: __ZNSt3__123__libcpp_numeric_limitsIdLb1EE3maxB8ue170006Ev, symObjAddr: 0x46C, symBinAddr: 0x10000CA4C, symSize: 0xC }
  - { offsetInCU: 0x8B65, offset: 0x2D9DE, size: 0x8, addend: 0x0, symName: __ZNKSt3__111__wrap_iterIPKNS_6vectorINS_12basic_stringIcNS_11char_traitsIcEENS_9allocatorIcEEEENS5_IS7_EEEEE4baseB8ue170006Ev, symObjAddr: 0x4C0, symBinAddr: 0x10000CAA0, symSize: 0x18 }
  - { offsetInCU: 0x8B89, offset: 0x2DA02, size: 0x8, addend: 0x0, symName: __ZNSt3__16vectorI11CandlestickNS_9allocatorIS1_EEEC2B8ue170006Ev, symObjAddr: 0x4D8, symBinAddr: 0x10000CAB8, symSize: 0x4C }
  - { offsetInCU: 0x8BBB, offset: 0x2DA34, size: 0x8, addend: 0x0, symName: __ZNSt3__117__compressed_pairIP11CandlestickNS_9allocatorIS1_EEEC1B8ue170006IDnNS_18__default_init_tagEEEOT_OT0_, symObjAddr: 0x524, symBinAddr: 0x10000CB04, symSize: 0x3C }
  - { offsetInCU: 0x8C11, offset: 0x2DA8A, size: 0x8, addend: 0x0, symName: __ZNSt3__117__compressed_pairIP11CandlestickNS_9allocatorIS1_EEEC2B8ue170006IDnNS_18__default_init_tagEEEOT_OT0_, symObjAddr: 0x56C, symBinAddr: 0x10000CB40, symSize: 0x40 }
  - { offsetInCU: 0x8C67, offset: 0x2DAE0, size: 0x8, addend: 0x0, symName: __ZNSt3__122__compressed_pair_elemIP11CandlestickLi0ELb0EEC2B8ue170006IDnvEEOT_, symObjAddr: 0x5AC, symBinAddr: 0x10000CB80, symSize: 0x1C }
  - { offsetInCU: 0x8CA7, offset: 0x2DB20, size: 0x8, addend: 0x0, symName: __ZNSt3__122__compressed_pair_elemINS_9allocatorI11CandlestickEELi1ELb1EEC2B8ue170006ENS_18__default_init_tagE, symObjAddr: 0x5C8, symBinAddr: 0x10000CB9C, symSize: 0x2C }
  - { offsetInCU: 0x8CD9, offset: 0x2DB52, size: 0x8, addend: 0x0, symName: __ZNSt3__19allocatorI11CandlestickEC2B8ue170006Ev, symObjAddr: 0x5F4, symBinAddr: 0x10000CBC8, symSize: 0x2C }
  - { offsetInCU: 0x8D01, offset: 0x2DB7A, size: 0x8, addend: 0x0, symName: __ZNSt3__116__non_trivial_ifILb1ENS_9allocatorI11CandlestickEEEC2B8ue170006Ev, symObjAddr: 0x620, symBinAddr: 0x10000CBF4, symSize: 0x14 }
  - { offsetInCU: 0x8D29, offset: 0x2DBA2, size: 0x8, addend: 0x0, symName: __ZNKSt3__16vectorINS0_INS_12basic_stringIcNS_11char_traitsIcEENS_9allocatorIcEEEENS4_IS6_EEEENS4_IS8_EEE11__make_iterB8ue170006EPKS8_, symObjAddr: 0xC08, symBinAddr: 0x10000CC08, symSize: 0x30 }
  - { offsetInCU: 0x8D5C, offset: 0x2DBD5, size: 0x8, addend: 0x0, symName: __ZNSt3__111__wrap_iterIPKNS_6vectorINS_12basic_stringIcNS_11char_traitsIcEENS_9allocatorIcEEEENS5_IS7_EEEEEC1B8ue170006ESB_, symObjAddr: 0xC38, symBinAddr: 0x10000CC38, symSize: 0x34 }
  - { offsetInCU: 0x8D92, offset: 0x2DC0B, size: 0x8, addend: 0x0, symName: __ZNSt3__111__wrap_iterIPKNS_6vectorINS_12basic_stringIcNS_11char_traitsIcEENS_9allocatorIcEEEENS5_IS7_EEEEEC2B8ue170006ESB_, symObjAddr: 0xC6C, symBinAddr: 0x10000CC6C, symSize: 0x20 }
  - { offsetInCU: 0x8DC8, offset: 0x2DC41, size: 0x8, addend: 0x0, symName: __ZNSt3__16vectorI11CandlestickNS_9allocatorIS1_EEE9__end_capB8ue170006Ev, symObjAddr: 0xC8C, symBinAddr: 0x10000CC8C, symSize: 0x28 }
  - { offsetInCU: 0x8DEC, offset: 0x2DC65, size: 0x8, addend: 0x0, symName: __ZNSt3__16vectorI11CandlestickNS_9allocatorIS1_EEE22__construct_one_at_endB8ue170006IJRdS6_S6_S6_EEEvDpOT_, symObjAddr: 0xCB4, symBinAddr: 0x10000CCB4, symSize: 0xA8 }
  - { offsetInCU: 0x8E75, offset: 0x2DCEE, size: 0x8, addend: 0x0, symName: __ZNSt3__16vectorI11CandlestickNS_9allocatorIS1_EEE24__emplace_back_slow_pathIJRdS6_S6_S6_EEEvDpOT_, symObjAddr: 0xD5C, symBinAddr: 0x10000CD5C, symSize: 0xF0 }
  - { offsetInCU: 0x8F0F, offset: 0x2DD88, size: 0x8, addend: 0x0, symName: __ZNSt3__117__compressed_pairIP11CandlestickNS_9allocatorIS1_EEE5firstB8ue170006Ev, symObjAddr: 0xE4C, symBinAddr: 0x10000CE4C, symSize: 0x24 }
  - { offsetInCU: 0x8F33, offset: 0x2DDAC, size: 0x8, addend: 0x0, symName: __ZNSt3__122__compressed_pair_elemIP11CandlestickLi0ELb0EE5__getB8ue170006Ev, symObjAddr: 0xE70, symBinAddr: 0x10000CE70, symSize: 0x14 }
  - { offsetInCU: 0x8F70, offset: 0x2DDE9, size: 0x8, addend: 0x0, symName: __ZNSt3__16vectorI11CandlestickNS_9allocatorIS1_EEE21_ConstructTransactionC1B8ue170006ERS4_m, symObjAddr: 0xE84, symBinAddr: 0x10000CE84, symSize: 0x3C }
  - { offsetInCU: 0x8FB6, offset: 0x2DE2F, size: 0x8, addend: 0x0, symName: __ZNSt3__116allocator_traitsINS_9allocatorI11CandlestickEEE9constructB8ue170006IS2_JRdS6_S6_S6_EvEEvRS3_PT_DpOT0_, symObjAddr: 0xEC0, symBinAddr: 0x10000CEC0, symSize: 0x4C }
  - { offsetInCU: 0x9048, offset: 0x2DEC1, size: 0x8, addend: 0x0, symName: __ZNSt3__16vectorI11CandlestickNS_9allocatorIS1_EEE21_ConstructTransactionD1B8ue170006Ev, symObjAddr: 0xF0C, symBinAddr: 0x10000CF0C, symSize: 0x2C }
  - { offsetInCU: 0x9070, offset: 0x2DEE9, size: 0x8, addend: 0x0, symName: __ZNSt3__16vectorI11CandlestickNS_9allocatorIS1_EEE21_ConstructTransactionC2B8ue170006ERS4_m, symObjAddr: 0xF38, symBinAddr: 0x10000CF38, symSize: 0x4C }
  - { offsetInCU: 0x90B6, offset: 0x2DF2F, size: 0x8, addend: 0x0, symName: __ZNSt3__19allocatorI11CandlestickE9constructB8ue170006IS1_JRdS4_S4_S4_EEEvPT_DpOT0_, symObjAddr: 0xF84, symBinAddr: 0x10000CF84, symSize: 0x58 }
  - { offsetInCU: 0x9143, offset: 0x2DFBC, size: 0x8, addend: 0x0, symName: __ZNSt3__16vectorI11CandlestickNS_9allocatorIS1_EEE21_ConstructTransactionD2B8ue170006Ev, symObjAddr: 0xFDC, symBinAddr: 0x10000CFDC, symSize: 0x20 }
  - { offsetInCU: 0x916B, offset: 0x2DFE4, size: 0x8, addend: 0x0, symName: __ZNKSt3__16vectorI11CandlestickNS_9allocatorIS1_EEE11__recommendB8ue170006Em, symObjAddr: 0xFFC, symBinAddr: 0x10000CFFC, symSize: 0xB4 }
  - { offsetInCU: 0x91BE, offset: 0x2E037, size: 0x8, addend: 0x0, symName: __ZNSt3__114__split_bufferI11CandlestickRNS_9allocatorIS1_EEEC1EmmS4_, symObjAddr: 0x10B0, symBinAddr: 0x10000D0B0, symSize: 0x44 }
  - { offsetInCU: 0x9213, offset: 0x2E08C, size: 0x8, addend: 0x0, symName: __ZNSt3__114__split_bufferI11CandlestickRNS_9allocatorIS1_EEED1Ev, symObjAddr: 0x1204, symBinAddr: 0x10000D204, symSize: 0x2C }
  - { offsetInCU: 0x923E, offset: 0x2E0B7, size: 0x8, addend: 0x0, symName: __ZNKSt3__16vectorI11CandlestickNS_9allocatorIS1_EEE8max_sizeEv, symObjAddr: 0x1230, symBinAddr: 0x10000D230, symSize: 0x60 }
  - { offsetInCU: 0x9264, offset: 0x2E0DD, size: 0x8, addend: 0x0, symName: __ZNKSt3__16vectorI11CandlestickNS_9allocatorIS1_EEE20__throw_length_errorB8ue170006Ev, symObjAddr: 0x1290, symBinAddr: 0x10000D290, symSize: 0x1C }
  - { offsetInCU: 0x9292, offset: 0x2E10B, size: 0x8, addend: 0x0, symName: __ZNSt3__116allocator_traitsINS_9allocatorI11CandlestickEEE8max_sizeB8ue170006IS3_vEEmRKS3_, symObjAddr: 0x1304, symBinAddr: 0x10000D2AC, symSize: 0x24 }
  - { offsetInCU: 0x92BF, offset: 0x2E138, size: 0x8, addend: 0x0, symName: __ZNKSt3__16vectorI11CandlestickNS_9allocatorIS1_EEE7__allocB8ue170006Ev, symObjAddr: 0x1328, symBinAddr: 0x10000D2D0, symSize: 0x28 }
  - { offsetInCU: 0x92E3, offset: 0x2E15C, size: 0x8, addend: 0x0, symName: __ZNKSt3__19allocatorI11CandlestickE8max_sizeB8ue170006Ev, symObjAddr: 0x13EC, symBinAddr: 0x10000D2F8, symSize: 0x20 }
  - { offsetInCU: 0x9307, offset: 0x2E180, size: 0x8, addend: 0x0, symName: __ZNKSt3__117__compressed_pairIP11CandlestickNS_9allocatorIS1_EEE6secondB8ue170006Ev, symObjAddr: 0x140C, symBinAddr: 0x10000D318, symSize: 0x24 }
  - { offsetInCU: 0x932B, offset: 0x2E1A4, size: 0x8, addend: 0x0, symName: __ZNKSt3__122__compressed_pair_elemINS_9allocatorI11CandlestickEELi1ELb1EE5__getB8ue170006Ev, symObjAddr: 0x1430, symBinAddr: 0x10000D33C, symSize: 0x14 }
  - { offsetInCU: 0x934F, offset: 0x2E1C8, size: 0x8, addend: 0x0, symName: __ZNSt3__114__split_bufferI11CandlestickRNS_9allocatorIS1_EEEC2EmmS4_, symObjAddr: 0x1584, symBinAddr: 0x10000D350, symSize: 0xE0 }
  - { offsetInCU: 0x93C1, offset: 0x2E23A, size: 0x8, addend: 0x0, symName: __ZNSt3__117__compressed_pairIP11CandlestickRNS_9allocatorIS1_EEEC1B8ue170006IDnS5_EEOT_OT0_, symObjAddr: 0x1664, symBinAddr: 0x10000D430, symSize: 0x3C }
  - { offsetInCU: 0x9417, offset: 0x2E290, size: 0x8, addend: 0x0, symName: __ZNSt3__114__split_bufferI11CandlestickRNS_9allocatorIS1_EEE7__allocB8ue170006Ev, symObjAddr: 0x16E0, symBinAddr: 0x10000D4AC, symSize: 0x28 }
  - { offsetInCU: 0x943B, offset: 0x2E2B4, size: 0x8, addend: 0x0, symName: __ZNSt3__114__split_bufferI11CandlestickRNS_9allocatorIS1_EEE9__end_capB8ue170006Ev, symObjAddr: 0x1708, symBinAddr: 0x10000D4D4, symSize: 0x28 }
  - { offsetInCU: 0x945F, offset: 0x2E2D8, size: 0x8, addend: 0x0, symName: __ZNSt3__117__compressed_pairIP11CandlestickRNS_9allocatorIS1_EEEC2B8ue170006IDnS5_EEOT_OT0_, symObjAddr: 0x1730, symBinAddr: 0x10000D4FC, symSize: 0x48 }
  - { offsetInCU: 0x94B5, offset: 0x2E32E, size: 0x8, addend: 0x0, symName: __ZNSt3__122__compressed_pair_elemIRNS_9allocatorI11CandlestickEELi1ELb0EEC2B8ue170006IS4_vEEOT_, symObjAddr: 0x1778, symBinAddr: 0x10000D544, symSize: 0x20 }
  - { offsetInCU: 0x94F5, offset: 0x2E36E, size: 0x8, addend: 0x0, symName: __ZNSt3__19allocatorI11CandlestickE8allocateB8ue170006Em, symObjAddr: 0x1798, symBinAddr: 0x10000D564, symSize: 0x5C }
  - { offsetInCU: 0x9527, offset: 0x2E3A0, size: 0x8, addend: 0x0, symName: __ZNSt3__117__compressed_pairIP11CandlestickRNS_9allocatorIS1_EEE6secondB8ue170006Ev, symObjAddr: 0x1874, symBinAddr: 0x10000D5C0, symSize: 0x28 }
  - { offsetInCU: 0x954B, offset: 0x2E3C4, size: 0x8, addend: 0x0, symName: __ZNSt3__122__compressed_pair_elemIRNS_9allocatorI11CandlestickEELi1ELb0EE5__getB8ue170006Ev, symObjAddr: 0x189C, symBinAddr: 0x10000D5E8, symSize: 0x18 }
  - { offsetInCU: 0x956F, offset: 0x2E3E8, size: 0x8, addend: 0x0, symName: __ZNSt3__117__compressed_pairIP11CandlestickRNS_9allocatorIS1_EEE5firstB8ue170006Ev, symObjAddr: 0x18B4, symBinAddr: 0x10000D600, symSize: 0x24 }
  - { offsetInCU: 0x9593, offset: 0x2E40C, size: 0x8, addend: 0x0, symName: __ZNSt3__116reverse_iteratorIP11CandlestickEC1B8ue170006ES2_, symObjAddr: 0x1A04, symBinAddr: 0x10000D750, symSize: 0x34 }
  - { offsetInCU: 0x95C9, offset: 0x2E442, size: 0x8, addend: 0x0, symName: __ZNKSt3__116reverse_iteratorIP11CandlestickE4baseB8ue170006Ev, symObjAddr: 0x1A38, symBinAddr: 0x10000D784, symSize: 0x18 }
  - { offsetInCU: 0x95ED, offset: 0x2E466, size: 0x8, addend: 0x0, symName: __ZNKSt3__16vectorI11CandlestickNS_9allocatorIS1_EEE14__annotate_newB8ue170006Em, symObjAddr: 0x1A8C, symBinAddr: 0x10000D7D8, symSize: 0xC8 }
  - { offsetInCU: 0x9620, offset: 0x2E499, size: 0x8, addend: 0x0, symName: __ZNSt3__129_AllocatorDestroyRangeReverseINS_9allocatorI11CandlestickEENS_16reverse_iteratorIPS2_EEEC1B8ue170006ERS3_RS6_S9_, symObjAddr: 0x1BA0, symBinAddr: 0x10000D8EC, symSize: 0x44 }
  - { offsetInCU: 0x967A, offset: 0x2E4F3, size: 0x8, addend: 0x0, symName: __ZNSt3__116allocator_traitsINS_9allocatorI11CandlestickEEE9constructB8ue170006IS2_JS2_EvEEvRS3_PT_DpOT0_, symObjAddr: 0x1C2C, symBinAddr: 0x10000D978, symSize: 0x34 }
  - { offsetInCU: 0x96D0, offset: 0x2E549, size: 0x8, addend: 0x0, symName: __ZNKSt3__116reverse_iteratorIP11CandlestickEdeB8ue170006Ev, symObjAddr: 0x1C84, symBinAddr: 0x10000D9D0, symSize: 0x28 }
  - { offsetInCU: 0x9702, offset: 0x2E57B, size: 0x8, addend: 0x0, symName: __ZNSt3__116reverse_iteratorIP11CandlestickEppB8ue170006Ev, symObjAddr: 0x1CAC, symBinAddr: 0x10000D9F8, symSize: 0x20 }
  - { offsetInCU: 0x9726, offset: 0x2E59F, size: 0x8, addend: 0x0, symName: __ZNSt3__128__exception_guard_exceptionsINS_29_AllocatorDestroyRangeReverseINS_9allocatorI11CandlestickEENS_16reverse_iteratorIPS3_EEEEE10__completeB8ue170006Ev, symObjAddr: 0x1CCC, symBinAddr: 0x10000DA18, symSize: 0x1C }
  - { offsetInCU: 0x974A, offset: 0x2E5C3, size: 0x8, addend: 0x0, symName: __ZNSt3__128__exception_guard_exceptionsINS_29_AllocatorDestroyRangeReverseINS_9allocatorI11CandlestickEENS_16reverse_iteratorIPS3_EEEEED1B8ue170006Ev, symObjAddr: 0x1CE8, symBinAddr: 0x10000DA34, symSize: 0x2C }
  - { offsetInCU: 0x9772, offset: 0x2E5EB, size: 0x8, addend: 0x0, symName: __ZNSt3__128__exception_guard_exceptionsINS_29_AllocatorDestroyRangeReverseINS_9allocatorI11CandlestickEENS_16reverse_iteratorIPS3_EEEEEC1B8ue170006ES8_, symObjAddr: 0x1D14, symBinAddr: 0x10000DA60, symSize: 0x34 }
  - { offsetInCU: 0x97A9, offset: 0x2E622, size: 0x8, addend: 0x0, symName: __ZNSt3__128__exception_guard_exceptionsINS_29_AllocatorDestroyRangeReverseINS_9allocatorI11CandlestickEENS_16reverse_iteratorIPS3_EEEEEC2B8ue170006ES8_, symObjAddr: 0x1D48, symBinAddr: 0x10000DA94, symSize: 0x30 }
  - { offsetInCU: 0x97E0, offset: 0x2E659, size: 0x8, addend: 0x0, symName: __ZNSt3__129_AllocatorDestroyRangeReverseINS_9allocatorI11CandlestickEENS_16reverse_iteratorIPS2_EEEC2B8ue170006ERS3_RS6_S9_, symObjAddr: 0x1D78, symBinAddr: 0x10000DAC4, symSize: 0x38 }
  - { offsetInCU: 0x9835, offset: 0x2E6AE, size: 0x8, addend: 0x0, symName: __ZNSt3__19allocatorI11CandlestickE9constructB8ue170006IS1_JS1_EEEvPT_DpOT0_, symObjAddr: 0x1DB0, symBinAddr: 0x10000DAFC, symSize: 0x30 }
  - { offsetInCU: 0x9889, offset: 0x2E702, size: 0x8, addend: 0x0, symName: __ZN11CandlestickC1EOS_, symObjAddr: 0x1DE0, symBinAddr: 0x10000DB2C, symSize: 0x34 }
  - { offsetInCU: 0x98BC, offset: 0x2E735, size: 0x8, addend: 0x0, symName: __ZN11CandlestickC2EOS_, symObjAddr: 0x1E14, symBinAddr: 0x10000DB60, symSize: 0x48 }
  - { offsetInCU: 0x98F4, offset: 0x2E76D, size: 0x8, addend: 0x0, symName: __ZNSt3__119__to_address_helperINS_16reverse_iteratorIP11CandlestickEEvE6__callB8ue170006ERKS4_, symObjAddr: 0x1F58, symBinAddr: 0x10000DBA8, symSize: 0x38 }
  - { offsetInCU: 0x9916, offset: 0x2E78F, size: 0x8, addend: 0x0, symName: __ZNKSt3__116reverse_iteratorIP11CandlestickEptB8ue170006Ev, symObjAddr: 0x1F90, symBinAddr: 0x10000DBE0, symSize: 0x24 }
  - { offsetInCU: 0x993A, offset: 0x2E7B3, size: 0x8, addend: 0x0, symName: __ZNSt3__128__exception_guard_exceptionsINS_29_AllocatorDestroyRangeReverseINS_9allocatorI11CandlestickEENS_16reverse_iteratorIPS3_EEEEED2B8ue170006Ev, symObjAddr: 0x1FB4, symBinAddr: 0x10000DC04, symSize: 0x50 }
  - { offsetInCU: 0x9962, offset: 0x2E7DB, size: 0x8, addend: 0x0, symName: __ZNKSt3__129_AllocatorDestroyRangeReverseINS_9allocatorI11CandlestickEENS_16reverse_iteratorIPS2_EEEclB8ue170006Ev, symObjAddr: 0x2004, symBinAddr: 0x10000DC54, symSize: 0xB4 }
  - { offsetInCU: 0x9987, offset: 0x2E800, size: 0x8, addend: 0x0, symName: __ZNSt3__116reverse_iteratorINS0_IP11CandlestickEEEC1B8ue170006ES3_, symObjAddr: 0x2128, symBinAddr: 0x10000DD78, symSize: 0x3C }
  - { offsetInCU: 0x99BD, offset: 0x2E836, size: 0x8, addend: 0x0, symName: __ZNSt3__116reverse_iteratorINS0_IP11CandlestickEEEppB8ue170006Ev, symObjAddr: 0x21E8, symBinAddr: 0x10000DE38, symSize: 0x30 }
  - { offsetInCU: 0x99E1, offset: 0x2E85A, size: 0x8, addend: 0x0, symName: __ZNKSt3__116reverse_iteratorINS0_IP11CandlestickEEE4baseB8ue170006Ev, symObjAddr: 0x2218, symBinAddr: 0x10000DE68, symSize: 0x24 }
  - { offsetInCU: 0x9A0A, offset: 0x2E883, size: 0x8, addend: 0x0, symName: __ZNSt3__119__to_address_helperINS_16reverse_iteratorINS1_IP11CandlestickEEEEvE6__callB8ue170006ERKS5_, symObjAddr: 0x223C, symBinAddr: 0x10000DE8C, symSize: 0x38 }
  - { offsetInCU: 0x9A2C, offset: 0x2E8A5, size: 0x8, addend: 0x0, symName: __ZNKSt3__116reverse_iteratorINS0_IP11CandlestickEEEptB8ue170006Ev, symObjAddr: 0x2274, symBinAddr: 0x10000DEC4, symSize: 0x24 }
  - { offsetInCU: 0x9A50, offset: 0x2E8C9, size: 0x8, addend: 0x0, symName: __ZNKSt3__116reverse_iteratorINS0_IP11CandlestickEEEdeB8ue170006Ev, symObjAddr: 0x2298, symBinAddr: 0x10000DEE8, symSize: 0x34 }
  - { offsetInCU: 0x9A82, offset: 0x2E8FB, size: 0x8, addend: 0x0, symName: __ZNSt3__116reverse_iteratorIP11CandlestickEmmB8ue170006Ev, symObjAddr: 0x22CC, symBinAddr: 0x10000DF1C, symSize: 0x20 }
  - { offsetInCU: 0x9AA6, offset: 0x2E91F, size: 0x8, addend: 0x0, symName: __ZNSt3__116reverse_iteratorINS0_IP11CandlestickEEEC2B8ue170006ES3_, symObjAddr: 0x22EC, symBinAddr: 0x10000DF3C, symSize: 0x2C }
  - { offsetInCU: 0x9ADC, offset: 0x2E955, size: 0x8, addend: 0x0, symName: __ZNSt3__116reverse_iteratorIP11CandlestickEC2B8ue170006ES2_, symObjAddr: 0x2318, symBinAddr: 0x10000DF68, symSize: 0x28 }
  - { offsetInCU: 0x9B12, offset: 0x2E98B, size: 0x8, addend: 0x0, symName: __ZNSt3__114__split_bufferI11CandlestickRNS_9allocatorIS1_EEED2Ev, symObjAddr: 0x2340, symBinAddr: 0x10000DF90, symSize: 0x8C }
  - { offsetInCU: 0x9B3D, offset: 0x2E9B6, size: 0x8, addend: 0x0, symName: __ZNSt3__114__split_bufferI11CandlestickRNS_9allocatorIS1_EEE5clearB8ue170006Ev, symObjAddr: 0x23CC, symBinAddr: 0x10000E01C, symSize: 0x28 }
  - { offsetInCU: 0x9B61, offset: 0x2E9DA, size: 0x8, addend: 0x0, symName: __ZNKSt3__114__split_bufferI11CandlestickRNS_9allocatorIS1_EEE8capacityB8ue170006Ev, symObjAddr: 0x23F4, symBinAddr: 0x10000E044, symSize: 0x40 }
  - { offsetInCU: 0x9B85, offset: 0x2E9FE, size: 0x8, addend: 0x0, symName: __ZNSt3__114__split_bufferI11CandlestickRNS_9allocatorIS1_EEE17__destruct_at_endB8ue170006EPS1_, symObjAddr: 0x2434, symBinAddr: 0x10000E084, symSize: 0x2C }
  - { offsetInCU: 0x9BB7, offset: 0x2EA30, size: 0x8, addend: 0x0, symName: __ZNSt3__114__split_bufferI11CandlestickRNS_9allocatorIS1_EEE17__destruct_at_endB8ue170006EPS1_NS_17integral_constantIbLb0EEE, symObjAddr: 0x2460, symBinAddr: 0x10000E0B0, symSize: 0x80 }
  - { offsetInCU: 0x9BF5, offset: 0x2EA6E, size: 0x8, addend: 0x0, symName: __ZNKSt3__114__split_bufferI11CandlestickRNS_9allocatorIS1_EEE9__end_capB8ue170006Ev, symObjAddr: 0x24E0, symBinAddr: 0x10000E130, symSize: 0x28 }
  - { offsetInCU: 0x9C19, offset: 0x2EA92, size: 0x8, addend: 0x0, symName: __ZNKSt3__117__compressed_pairIP11CandlestickRNS_9allocatorIS1_EEE5firstB8ue170006Ev, symObjAddr: 0x2508, symBinAddr: 0x10000E158, symSize: 0x24 }
  - { offsetInCU: 0x3DEF, offset: 0x3291D, size: 0x8, addend: 0x0, symName: __ZNSt3__1lsB8ue170006IcNS_11char_traitsIcEEEERNS_13basic_ostreamIT_T0_EES7_RKNS_8__iom_t5E, symObjAddr: 0x218, symBinAddr: 0x10000E33C, symSize: 0x40 }
  - { offsetInCU: 0x3E3B, offset: 0x32969, size: 0x8, addend: 0x0, symName: __ZNSt3__15fixedB8ue170006ERNS_8ios_baseE, symObjAddr: 0x298, symBinAddr: 0x10000E3BC, symSize: 0x30 }
  - { offsetInCU: 0x3E69, offset: 0x32997, size: 0x8, addend: 0x0, symName: __ZNSt3__112setprecisionB8ue170006Ei, symObjAddr: 0x2C8, symBinAddr: 0x10000E3EC, symSize: 0x2C }
  - { offsetInCU: 0x5F7F, offset: 0x34AAD, size: 0x8, addend: 0x0, symName: __ZN11CandlestickC2Edddd, symObjAddr: 0x0, symBinAddr: 0x10000E17C, symSize: 0x94 }
  - { offsetInCU: 0x5FE1, offset: 0x34B0F, size: 0x8, addend: 0x0, symName: __ZN11CandlestickC1Edddd, symObjAddr: 0xEC, symBinAddr: 0x10000E210, symSize: 0x4C }
  - { offsetInCU: 0x6043, offset: 0x34B71, size: 0x8, addend: 0x0, symName: __ZNK11Candlestick7displayEv, symObjAddr: 0x138, symBinAddr: 0x10000E25C, symSize: 0xE0 }
  - { offsetInCU: 0x606A, offset: 0x34B98, size: 0x8, addend: 0x0, symName: __ZNSt3__113basic_ostreamIcNS_11char_traitsIcEEElsB8ue170006EPFRNS_8ios_baseES5_E, symObjAddr: 0x258, symBinAddr: 0x10000E37C, symSize: 0x40 }
  - { offsetInCU: 0x609C, offset: 0x34BCA, size: 0x8, addend: 0x0, symName: __ZNK11Candlestick12getTimestampEv, symObjAddr: 0x388, symBinAddr: 0x10000E418, symSize: 0x38 }
  - { offsetInCU: 0x60C3, offset: 0x34BF1, size: 0x8, addend: 0x0, symName: __ZNK11Candlestick7getOpenEv, symObjAddr: 0x3C0, symBinAddr: 0x10000E450, symSize: 0x18 }
  - { offsetInCU: 0x60EA, offset: 0x34C18, size: 0x8, addend: 0x0, symName: __ZNK11Candlestick7getHighEv, symObjAddr: 0x3D8, symBinAddr: 0x10000E468, symSize: 0x18 }
  - { offsetInCU: 0x6111, offset: 0x34C3F, size: 0x8, addend: 0x0, symName: __ZNK11Candlestick6getLowEv, symObjAddr: 0x3F0, symBinAddr: 0x10000E480, symSize: 0x18 }
  - { offsetInCU: 0x6138, offset: 0x34C66, size: 0x8, addend: 0x0, symName: __ZNK11Candlestick8getCloseEv, symObjAddr: 0x408, symBinAddr: 0x10000E498, symSize: 0x18 }
  - { offsetInCU: 0x615F, offset: 0x34C8D, size: 0x8, addend: 0x0, symName: __ZNSt3__18ios_base4setfB8ue170006Ejj, symObjAddr: 0x420, symBinAddr: 0x10000E4B0, symSize: 0x5C }
  - { offsetInCU: 0x61B2, offset: 0x34CE0, size: 0x8, addend: 0x0, symName: __ZNSt3__18ios_base6unsetfB8ue170006Ej, symObjAddr: 0x47C, symBinAddr: 0x10000E50C, symSize: 0x28 }
  - { offsetInCU: 0x61E8, offset: 0x34D16, size: 0x8, addend: 0x0, symName: __ZNSt3__18__iom_t5C1B8ue170006Ei, symObjAddr: 0x4A4, symBinAddr: 0x10000E534, symSize: 0x34 }
  - { offsetInCU: 0x621E, offset: 0x34D4C, size: 0x8, addend: 0x0, symName: __ZNSt3__18__iom_t5C2B8ue170006Ei, symObjAddr: 0x4D8, symBinAddr: 0x10000E568, symSize: 0x20 }
  - { offsetInCU: 0x6254, offset: 0x34D82, size: 0x8, addend: 0x0, symName: __ZNSt3__18ios_base9precisionB8ue170006El, symObjAddr: 0x6BC, symBinAddr: 0x10000E588, symSize: 0x2C }
  - { offsetInCU: 0x543A, offset: 0x3A242, size: 0x8, addend: 0x0, symName: __ZN18CandlestickPlotter4plotERKNSt3__16vectorI11CandlestickNS0_9allocatorIS2_EEEE, symObjAddr: 0x0, symBinAddr: 0x10000E5B4, symSize: 0x1B0 }
...
